	.text
	.syntax unified
	.eabi_attribute	67, "2.09"
	.eabi_attribute	6, 12
	.eabi_attribute	7, 77
	.eabi_attribute	8, 0
	.eabi_attribute	9, 1
	.eabi_attribute	34, 0
	.eabi_attribute	17, 1
	.eabi_attribute	20, 1
	.eabi_attribute	21, 0
	.eabi_attribute	23, 3
	.eabi_attribute	24, 1
	.eabi_attribute	25, 1
	.eabi_attribute	38, 1
	.eabi_attribute	14, 0
	.code	16
	.file	"simpletelnet.960d3e2c-cgu.0"


__aeabi_lmul:

	push	{r4, lr}
	muls	r1, r2, r1
	muls	r3, r0, r3
	adds	r1, r1, r3

	lsrs	r3, r0, #16
	lsrs	r4, r2, #16
	muls	r3, r4, r3
	adds	r1, r1, r3

	lsrs	r3, r0, #16
	uxth	r0, r0
	uxth	r2, r2
	muls	r3, r2, r3
	muls	r4, r0, r4
	muls	r0, r2, r0

	movs	r2, #0
	adds	r3, r3, r4
	adcs	r2, r2
	lsls	r2, r2, #16
	adds	r1, r1, r2

	lsls	r2, r3, #16
	lsrs	r3, r3, #16
	adds	r0, r0, r2
	adcs	r1, r3
	pop	{r4, pc}


	.section	.text.unknown_panic,"ax",%progbits
	.globl	unknown_panic
	.p2align	2
	.type	unknown_panic,%function
	.code	16
	.thumb_func
unknown_panic:
	.fnstart
	.save	{r7, lr}
	push	{r7, lr}
	.setfp	r7, sp
	add	r7, sp, #0
	ldr	r0, .LCPI0_0
	movs	r1, #13
	bl	_ZN4core9panicking5panicXXX
	.inst.n	0xdefe
	.p2align	2
.LCPI0_0:
	.long	.L__unnamed_1
.Lfunc_end0:
	.size	unknown_panic, .Lfunc_end0-unknown_panic
	.cantunwind
	.fnend

	.section	.text.__aeabi_memcpy,"ax",%progbits
	.globl	__aeabi_memcpy
	.p2align	1
	.type	__aeabi_memcpy,%function
	.code	16
	.thumb_func
__aeabi_memcpy:
	.fnstart
	.save	{r4, r5, r7, lr}
	push	{r4, r5, r7, lr}
	.setfp	r7, sp, #8
	add	r7, sp, #8
	movs	r3, #3
	mov	r4, r2
	bics	r4, r3
	movs	r3, #0
.LBB1_1:
	cmp	r3, r4
	bhs	.LBB1_4
	ldr	r5, [r1, r3]
	str	r5, [r0, r3]
	adds	r3, r3, #4
	b	.LBB1_1
.LBB1_3:
	ldrb	r4, [r1, r3]
	strb	r4, [r0, r3]
	adds	r3, r3, #1
.LBB1_4:
	cmp	r3, r2
	blo	.LBB1_3
	pop	{r4, r5, r7, pc}
.Lfunc_end1:
	.size	__aeabi_memcpy, .Lfunc_end1-__aeabi_memcpy
	.cantunwind
	.fnend

	.section	.text.__aeabi_memcpy4,"ax",%progbits
	.globl	__aeabi_memcpy4
	.p2align	1
	.type	__aeabi_memcpy4,%function
	.code	16
	.thumb_func
__aeabi_memcpy4:
	.fnstart
	.save	{r7, lr}
	push	{r7, lr}
	.setfp	r7, sp
	add	r7, sp, #0
	bl	__aeabi_memcpy
	pop	{r7, pc}
.Lfunc_end2:
	.size	__aeabi_memcpy4, .Lfunc_end2-__aeabi_memcpy4
	.cantunwind
	.fnend

	.section	.text.__aeabi_memclr,"ax",%progbits
	.globl	__aeabi_memclr
	.p2align	1
	.type	__aeabi_memclr,%function
	.code	16
	.thumb_func
__aeabi_memclr:
	.fnstart
	.save	{r4, r6, r7, lr}
	push	{r4, r6, r7, lr}
	.setfp	r7, sp, #8
	add	r7, sp, #8
	movs	r2, #3
	mov	r3, r1
	bics	r3, r2
	movs	r2, #0
.LBB3_1:
	cmp	r2, r3
	bhs	.LBB3_4
	movs	r4, #0
	str	r4, [r0, r2]
	adds	r2, r2, #4
	b	.LBB3_1
.LBB3_3:
	movs	r3, #0
	strb	r3, [r0, r2]
	adds	r2, r2, #1
.LBB3_4:
	cmp	r2, r1
	blo	.LBB3_3
	pop	{r4, r6, r7, pc}
.Lfunc_end3:
	.size	__aeabi_memclr, .Lfunc_end3-__aeabi_memclr
	.cantunwind
	.fnend

	.section	.text.__aeabi_memclr4,"ax",%progbits
	.globl	__aeabi_memclr4
	.p2align	1
	.type	__aeabi_memclr4,%function
	.code	16
	.thumb_func
__aeabi_memclr4:
	.fnstart
	.save	{r7, lr}
	push	{r7, lr}
	.setfp	r7, sp
	add	r7, sp, #0
	bl	__aeabi_memclr
	pop	{r7, pc}
.Lfunc_end4:
	.size	__aeabi_memclr4, .Lfunc_end4-__aeabi_memclr4
	.cantunwind
	.fnend

	.section	.text.__aeabi_memclr8,"ax",%progbits
	.globl	__aeabi_memclr8
	.p2align	1
	.type	__aeabi_memclr8,%function
	.code	16
	.thumb_func
__aeabi_memclr8:
	.fnstart
	.save	{r7, lr}
	push	{r7, lr}
	.setfp	r7, sp
	add	r7, sp, #0
	@APP
memclr8:
	@NO_APP
	bl	__aeabi_memclr
	pop	{r7, pc}
.Lfunc_end5:
	.size	__aeabi_memclr8, .Lfunc_end5-__aeabi_memclr8
	.cantunwind
	.fnend

	.section	.text.__aeabi_memmove4,"ax",%progbits
	.globl	__aeabi_memmove4
	.p2align	1
	.type	__aeabi_memmove4,%function
	.code	16
	.thumb_func
__aeabi_memmove4:
	.fnstart
	.save	{r7, lr}
	push	{r7, lr}
	.setfp	r7, sp
	add	r7, sp, #0
	bl	__aeabi_memmove
	pop	{r7, pc}
.Lfunc_end6:
	.size	__aeabi_memmove4, .Lfunc_end6-__aeabi_memmove4
	.cantunwind
	.fnend

	.section	.text.__aeabi_memmove,"ax",%progbits
	.globl	__aeabi_memmove
	.p2align	1
	.type	__aeabi_memmove,%function
	.code	16
	.thumb_func
__aeabi_memmove:
	.fnstart
	.save	{r4, r5, r6, r7, lr}
	.pad	#4
	push	{r3, r4, r5, r6, r7, lr}
	.setfp	r7, sp, #16
	add	r7, sp, #16
	movs	r4, #3
	mov	r6, r2
	bics	r6, r4
	cmp	r1, r0
	bhs	.LBB7_4
	subs	r4, r1, #4
	subs	r5, r0, #4
	str	r6, [sp]
.LBB7_2:
	cmp	r6, #0
	beq	.LBB7_10
	ldr	r3, [r4, r6]
	str	r3, [r5, r6]
	subs	r6, r6, #4
	b	.LBB7_2
.LBB7_4:
	movs	r4, #0
.LBB7_5:
	cmp	r4, r6
	bhs	.LBB7_8
	ldr	r3, [r1, r4]
	str	r3, [r0, r4]
	adds	r4, r4, #4
	b	.LBB7_5
.LBB7_7:
	ldrb	r3, [r1, r4]
	strb	r3, [r0, r4]
	adds	r4, r4, #1
.LBB7_8:
	cmp	r4, r2
	blo	.LBB7_7
.LBB7_9:
	pop	{r3, r4, r5, r6, r7, pc}
.LBB7_10:
	ldr	r3, [sp]
	subs	r3, r2, r3
	adds	r1, r2, r1
	subs	r1, r1, #1
	adds	r0, r2, r0
.LBB7_11:
	subs	r0, r0, #1
	cmp	r3, #0
	beq	.LBB7_9
	ldrb	r2, [r1]
	strb	r2, [r0]
	subs	r3, r3, #1
	subs	r1, r1, #1
	b	.LBB7_11
.Lfunc_end7:
	.size	__aeabi_memmove, .Lfunc_end7-__aeabi_memmove
	.cantunwind
	.fnend

	.section	.text.__aeabi_memset,"ax",%progbits
	.globl	__aeabi_memset
	.p2align	2
	.type	__aeabi_memset,%function
	.code	16
	.thumb_func
__aeabi_memset:
	.fnstart
	.save	{r4, r6, r7, lr}
	push	{r4, r6, r7, lr}
	.setfp	r7, sp, #8
	add	r7, sp, #8
	movs	r3, #3
	mov	r4, r2
	bics	r4, r3
	uxtb	r3, r1
	ldr	r1, .LCPI8_0
	muls	r1, r3, r1
	movs	r3, #0
.LBB8_1:
	cmp	r3, r4
	bhs	.LBB8_4
	str	r1, [r0, r3]
	adds	r3, r3, #4
	b	.LBB8_1
.LBB8_3:
	strb	r1, [r0, r3]
	adds	r3, r3, #1
.LBB8_4:
	cmp	r3, r2
	blo	.LBB8_3
	pop	{r4, r6, r7, pc}
	.p2align	2
.LCPI8_0:
	.long	16843009
.Lfunc_end8:
	.size	__aeabi_memset, .Lfunc_end8-__aeabi_memset
	.cantunwind
	.fnend

	.section	.text.memcmp,"ax",%progbits
	.globl	memcmp
	.p2align	1
	.type	memcmp,%function
	.code	16
	.thumb_func
memcmp:
	.fnstart
	.save	{r7, lr}
	push	{r7, lr}
	.setfp	r7, sp
	add	r7, sp, #0
	bl	__aeabi_memcmp
	pop	{r7, pc}
.Lfunc_end9:
	.size	memcmp, .Lfunc_end9-memcmp
	.cantunwind
	.fnend

	.section	.text.__aeabi_memcmp,"ax",%progbits
	.globl	__aeabi_memcmp
	.p2align	1
	.type	__aeabi_memcmp,%function
	.code	16
	.thumb_func
__aeabi_memcmp:
	.fnstart
	.save	{r4, r5, r6, r7, lr}
	push	{r4, r5, r6, r7, lr}
	.setfp	r7, sp, #12
	add	r7, sp, #12
	.pad	#20
	sub	sp, #20
	movs	r3, #3
	mov	r6, r2
	bics	r6, r3
	movs	r4, #0
	add	r3, sp, #4
	stm	r3!, {r0, r1, r2}
	str	r6, [sp]
.LBB10_1:
	cmp	r4, r6
	bhs	.LBB10_11
	ldr	r3, [r4, r1]
	ldr	r5, [r4, r0]
	cmp	r5, r3
	beq	.LBB10_9
	adds	r2, r4, #4
	cmp	r4, r2
	mov	r5, r4
	bhi	.LBB10_5
	mov	r5, r2
.LBB10_5:
	adds	r6, r0, r4
	adds	r3, r1, r4
	str	r5, [sp, #16]
	subs	r4, r5, r4
.LBB10_6:
	cmp	r4, #0
	beq	.LBB10_8
	subs	r4, r4, #1
	adds	r1, r6, #1
	adds	r0, r3, #1
	ldrb	r2, [r3]
	ldrb	r5, [r6]
	cmp	r5, r2
	mov	r6, r1
	mov	r3, r0
	beq	.LBB10_6
	b	.LBB10_13
.LBB10_8:
	add	r4, sp, #4
	ldm	r4, {r0, r1, r2, r4}
	ldr	r6, [sp]
.LBB10_9:
	adds	r4, r4, #4
	b	.LBB10_1
.LBB10_10:
	ldrb	r3, [r1, r4]
	ldrb	r5, [r0, r4]
	adds	r4, r4, #1
	cmp	r5, r3
	bne	.LBB10_15
.LBB10_11:
	cmp	r4, r2
	blo	.LBB10_10
	movs	r0, #0
	b	.LBB10_14
.LBB10_13:
	subs	r0, r5, r2
.LBB10_14:
	add	sp, #20
	pop	{r4, r5, r6, r7, pc}
.LBB10_15:
	subs	r0, r5, r3
	b	.LBB10_14
.Lfunc_end10:
	.size	__aeabi_memcmp, .Lfunc_end10-__aeabi_memcmp
	.cantunwind
	.fnend

	.section	.text.__aeabi_uidiv,"ax",%progbits
	.globl	__aeabi_uidiv
	.p2align	1
	.type	__aeabi_uidiv,%function
	.code	16
	.thumb_func
__aeabi_uidiv:
	.fnstart
	.save	{r4, r6, r7, lr}
	push	{r4, r6, r7, lr}
	.setfp	r7, sp, #8
	add	r7, sp, #8
	@APP
uidiv:
	@NO_APP
	movs	r2, #207
	mvns	r4, r2
	mov	r2, r0
	mov	r3, r1
	@APP
	ldr	r0, [r4]
	@NO_APP
	pop	{r4, r6, r7, pc}
.Lfunc_end11:
	.size	__aeabi_uidiv, .Lfunc_end11-__aeabi_uidiv
	.cantunwind
	.fnend

	.section	.text.__aeabi_idiv,"ax",%progbits
	.globl	__aeabi_idiv
	.p2align	1
	.type	__aeabi_idiv,%function
	.code	16
	.thumb_func
__aeabi_idiv:
	.fnstart
	.save	{r4, r6, r7, lr}
	push	{r4, r6, r7, lr}
	.setfp	r7, sp, #8
	add	r7, sp, #8
	movs	r2, #207
	mvns	r4, r2
	mov	r2, r0
	mov	r3, r1
	@APP
	ldr	r0, [r4]
	@NO_APP
	pop	{r4, r6, r7, pc}
.Lfunc_end12:
	.size	__aeabi_idiv, .Lfunc_end12-__aeabi_idiv
	.cantunwind
	.fnend

	.section	.text.__aeabi_uidivmod,"ax",%progbits
	.globl	__aeabi_uidivmod
	.p2align	1
	.type	__aeabi_uidivmod,%function
	.code	16
	.thumb_func
__aeabi_uidivmod:
	.fnstart
	.save	{r4, r5, r7, lr}
	push	{r4, r5, r7, lr}
	.setfp	r7, sp, #8
	add	r7, sp, #8
	@APP
__uidivmod_test:
	@NO_APP
	movs	r2, #207
	mvns	r4, r2
	movs	r2, #203
	mvns	r5, r2
	mov	r2, r0
	mov	r3, r1
	@APP

	ldr	r0, [r4]
	ldr	r1, [r5]

	@NO_APP
	pop	{r4, r5, r7, pc}
.Lfunc_end13:
	.size	__aeabi_uidivmod, .Lfunc_end13-__aeabi_uidivmod
	.cantunwind
	.fnend

	.section	.text.__aeabi_idivmod,"ax",%progbits
	.globl	__aeabi_idivmod
	.p2align	1
	.type	__aeabi_idivmod,%function
	.code	16
	.thumb_func
__aeabi_idivmod:
	.fnstart
	.save	{r4, r5, r7, lr}
	push	{r4, r5, r7, lr}
	.setfp	r7, sp, #8
	add	r7, sp, #8
	movs	r2, #207
	mvns	r4, r2
	movs	r2, #203
	mvns	r5, r2
	mov	r2, r0
	mov	r3, r1
	@APP

	ldr	r0, [r4]
	ldr	r1, [r5]

	@NO_APP
	pop	{r4, r5, r7, pc}
.Lfunc_end14:
	.size	__aeabi_idivmod, .Lfunc_end14-__aeabi_idivmod
	.cantunwind
	.fnend

	.section	.start,"ax",%progbits
	.globl	run
	.p2align	1
	.type	run,%function
	.code	16
	.thumb_func
run:
	.fnstart
	.save	{r7, lr}
	push	{r7, lr}
	.setfp	r7, sp
	add	r7, sp, #0
	@APP

	movs	r0, #1
	lsls	r0, r0, #20
	mov	sp, r0
	movs	r0, #0

	@NO_APP
	movs	r0, #255
	mvns	r0, r0
.LBB15_1:
	ldr	r1, [r0, #12]
	cmp	r1, #0
	beq	.LBB15_3
	ldr	r1, [r0, #8]
	uxtb	r1, r1
	str	r1, [r0]
.LBB15_3:
	ldr	r1, [r0, #24]
	cmp	r1, #0
	beq	.LBB15_1
	ldr	r1, [r0, #28]
	uxtb	r1, r1
	str	r1, [r0, #8]
	b	.LBB15_1
.Lfunc_end15:
	.size	run, .Lfunc_end15-run
	.cantunwind
	.fnend

	.section	.text._ZN4core9panicking5panicXXX,"ax",%progbits
	.globl	_ZN4core9panicking5panicXXX
	.p2align	2
	.type	_ZN4core9panicking5panicXXX,%function
	.code	16
	.thumb_func
_ZN4core9panicking5panicXXX:
	.fnstart
	movs	r2, #255
	mvns	r2, r2
	movs	r3, #0
	ldr	r4, .LCPI16_0
.LBB16_1:
	cmp	r3, #6
	beq	.LBB16_4
	ldrb	r5, [r4, r3]
	str	r5, [r2]
	adds	r3, r3, #1
	b	.LBB16_1
.LBB16_3:
	ldrb	r3, [r0]
	str	r3, [r2]
	subs	r1, r1, #1
	adds	r0, r0, #1
.LBB16_4:
	cmp	r1, #0
	bne	.LBB16_3
	movs	r0, #10
	str	r0, [r2]
.LBB16_6:
	b	.LBB16_6
	.p2align	2
.LCPI16_0:
	.long	.L__unnamed_2
.Lfunc_end16:
	.size	_ZN4core9panicking5panicXXX, .Lfunc_end16-_ZN4core9panicking5panicXXX
	.cantunwind
	.fnend

	.section	.text.expect_failed,"ax",%progbits
	.globl	expect_failed
	.p2align	1
	.type	expect_failed,%function
	.code	16
	.thumb_func
expect_failed:
	.fnstart
	.save	{r7, lr}
	push	{r7, lr}
	.setfp	r7, sp
	add	r7, sp, #0
	@APP
_ZN4core6option13expect_failedXXX:
	@NO_APP
	bl	_ZN4core9panicking5panicXXX
	.inst.n	0xdefe
.Lfunc_end17:
	.size	expect_failed, .Lfunc_end17-expect_failed
	.cantunwind
	.fnend

	.section	.text.unwrap_failed,"ax",%progbits
	.globl	unwrap_failed
	.p2align	2
	.type	unwrap_failed,%function
	.code	16
	.thumb_func
unwrap_failed:
	.fnstart
	.save	{r7, lr}
	push	{r7, lr}
	.setfp	r7, sp
	add	r7, sp, #0
	@APP
_ZN4core6result13unwrap_failedXXX:
	@NO_APP
	ldr	r0, .LCPI18_0
	movs	r1, #13
	bl	_ZN4core9panicking5panicXXX
	.inst.n	0xdefe
	.p2align	2
.LCPI18_0:
	.long	.L__unnamed_3
.Lfunc_end18:
	.size	unwrap_failed, .Lfunc_end18-unwrap_failed
	.cantunwind
	.fnend

	.section	.text.panic_bounds_check,"ax",%progbits
	.globl	panic_bounds_check
	.p2align	2
	.type	panic_bounds_check,%function
	.code	16
	.thumb_func
panic_bounds_check:
	.fnstart
	.save	{r7, lr}
	push	{r7, lr}
	.setfp	r7, sp
	add	r7, sp, #0
	@APP
_ZN4core9panicking18panic_bounds_checkXXX:
	@NO_APP
	ldr	r0, .LCPI19_0
	movs	r1, #19
	bl	_ZN4core9panicking5panicXXX
	.inst.n	0xdefe
	.p2align	2
.LCPI19_0:
	.long	.L__unnamed_4
.Lfunc_end19:
	.size	panic_bounds_check, .Lfunc_end19-panic_bounds_check
	.cantunwind
	.fnend

	.section	.text.panic_fmt,"ax",%progbits
	.globl	panic_fmt
	.p2align	2
	.type	panic_fmt,%function
	.code	16
	.thumb_func
panic_fmt:
	.fnstart
	.save	{r7, lr}
	push	{r7, lr}
	.setfp	r7, sp
	add	r7, sp, #0
	@APP
_ZN4core9panicking9panic_fmtXXX:
	@NO_APP
	ldr	r0, .LCPI20_0
	movs	r1, #9
	bl	_ZN4core9panicking5panicXXX
	.inst.n	0xdefe
	.p2align	2
.LCPI20_0:
	.long	.L__unnamed_5
.Lfunc_end20:
	.size	panic_fmt, .Lfunc_end20-panic_fmt
	.cantunwind
	.fnend

	.section	.text.slicee_end_index_len_fail,"ax",%progbits
	.globl	slicee_end_index_len_fail
	.p2align	2
	.type	slicee_end_index_len_fail,%function
	.code	16
	.thumb_func
slicee_end_index_len_fail:
	.fnstart
	.save	{r7, lr}
	push	{r7, lr}
	.setfp	r7, sp
	add	r7, sp, #0
	@APP
_ZN4core5slice5index26slice_start_index_len_failXXX:
	@NO_APP
	@APP
_ZN4core5slice5index24slice_end_index_len_failXXX:
	@NO_APP
	@APP
_ZN4core5slice29__DOL_LT_DOL_impl_DOL_u20_DOL__DOL_u5b_DOL_T_DOL_u5d_DOL__DOL_GT_DOL_15copy_from_slice17len_mismatch_failXXX:
	@NO_APP
	ldr	r0, .LCPI21_0
	movs	r1, #25
	bl	_ZN4core9panicking5panicXXX
	.inst.n	0xdefe
	.p2align	2
.LCPI21_0:
	.long	.L__unnamed_6
.Lfunc_end21:
	.size	slicee_end_index_len_fail, .Lfunc_end21-slicee_end_index_len_fail
	.cantunwind
	.fnend

	.section	.text.slice_index_order_fail,"ax",%progbits
	.globl	slice_index_order_fail
	.p2align	2
	.type	slice_index_order_fail,%function
	.code	16
	.thumb_func
slice_index_order_fail:
	.fnstart
	.save	{r7, lr}
	push	{r7, lr}
	.setfp	r7, sp
	add	r7, sp, #0
	@APP
_ZN4core5slice5index22slice_index_order_failXXX:
	@NO_APP
	ldr	r0, .LCPI22_0
	movs	r1, #36
	bl	_ZN4core9panicking5panicXXX
	.inst.n	0xdefe
	.p2align	2
.LCPI22_0:
	.long	.L__unnamed_7
.Lfunc_end22:
	.size	slice_index_order_fail, .Lfunc_end22-slice_index_order_fail
	.cantunwind
	.fnend

	.section	.text.rust_begin_unwind,"ax",%progbits
	.hidden	rust_begin_unwind
	.globl	rust_begin_unwind
	.p2align	2
	.type	rust_begin_unwind,%function
	.code	16
	.thumb_func
rust_begin_unwind:
	.fnstart
	movs	r0, #255
	mvns	r0, r0
	movs	r1, #0
	ldr	r2, .LCPI23_0
.LBB23_1:
	cmp	r1, #7
	beq	.LBB23_3
	ldrb	r3, [r2, r1]
	str	r3, [r0]
	adds	r1, r1, #1
	b	.LBB23_1
.LBB23_3:
	movs	r1, #10
	str	r1, [r0]
.LBB23_4:
	b	.LBB23_4
	.p2align	2
.LCPI23_0:
	.long	.L__unnamed_8
.Lfunc_end23:
	.size	rust_begin_unwind, .Lfunc_end23-rust_begin_unwind
	.cantunwind
	.fnend

	.type	.L__unnamed_1,%object
	.section	.rodata..L__unnamed_1,"a",%progbits
.L__unnamed_1:
	.ascii	"unknown panic"
	.size	.L__unnamed_1, 13

	.type	.L__unnamed_2,%object
	.section	.rodata..L__unnamed_2,"a",%progbits
.L__unnamed_2:
	.ascii	"PANIC:"
	.size	.L__unnamed_2, 6

	.type	.L__unnamed_3,%object
	.section	.rodata..L__unnamed_3,"a",%progbits
.L__unnamed_3:
	.ascii	"unwrap_failed"
	.size	.L__unnamed_3, 13

	.type	.L__unnamed_4,%object
	.section	.rodata..L__unnamed_4,"a",%progbits
.L__unnamed_4:
	.ascii	"index out of bounds"
	.size	.L__unnamed_4, 19

	.type	.L__unnamed_5,%object
	.section	.rodata..L__unnamed_5,"a",%progbits
.L__unnamed_5:
	.ascii	"panic_fmt"
	.size	.L__unnamed_5, 9

	.type	.L__unnamed_6,%object
	.section	.rodata..L__unnamed_6,"a",%progbits
.L__unnamed_6:
	.ascii	"slice index out of bounds"
	.size	.L__unnamed_6, 25

	.type	.L__unnamed_7,%object
	.section	.rodata..L__unnamed_7,"a",%progbits
.L__unnamed_7:
	.ascii	"slice index start is larger than end"
	.size	.L__unnamed_7, 36

	.type	.L__unnamed_8,%object
	.section	.rodata..L__unnamed_8,"a",%progbits
.L__unnamed_8:
	.ascii	"handler"
	.size	.L__unnamed_8, 7

	.section	".note.GNU-stack","",%progbits
	.eabi_attribute	30, 4
