.text
.syntax unified
.eabi_attribute	67, "2.09"
.eabi_attribute	6, 12
.eabi_attribute	7, 77
.eabi_attribute	8, 0
.eabi_attribute	9, 1
.eabi_attribute	34, 0
.eabi_attribute	17, 1
.eabi_attribute	20, 1
.eabi_attribute	21, 0
.eabi_attribute	23, 3
.eabi_attribute	24, 1
.eabi_attribute	25, 1
.eabi_attribute	38, 1
.eabi_attribute	14, 0
.code	16
.file	"lisp.892d5c63-cgu.0"


__aeabi_lmul:

push	{r4, lr}
muls	r1, r2, r1
muls	r3, r0, r3
adds	r1, r1, r3

lsrs	r3, r0, #16
lsrs	r4, r2, #16
muls	r3, r4, r3
adds	r1, r1, r3

lsrs	r3, r0, #16
uxth	r0, r0
uxth	r2, r2
muls	r3, r2, r3
muls	r4, r0, r4
muls	r0, r2, r0

movs	r2, #0
adds	r3, r3, r4
adcs	r2, r2
lsls	r2, r2, #16
adds	r1, r1, r2

lsls	r2, r3, #16
lsrs	r3, r3, #16
adds	r0, r0, r2
adcs	r1, r3
pop	{r4, pc}

_ZN63_$LT$core..cell..BorrowMutError$u20$as$u20$core..fmt..Debug$GT$3fmt17hd3989ea40ef8781cE:
nop



.section	".text._ZN108_$LT$core..iter..adapters..peekable..Peekable$LT$I$GT$$u20$as$u20$core..iter..traits..iterator..Iterator$GT$4next17h0170e9c6952d9f9fE","ax",%progbits
.p2align	2
.type	_ZN108_$LT$core..iter..adapters..peekable..Peekable$LT$I$GT$$u20$as$u20$core..iter..traits..iterator..Iterator$GT$4next17h0170e9c6952d9f9fE,%function
.code	16
.thumb_func
_ZN108_$LT$core..iter..adapters..peekable..Peekable$LT$I$GT$$u20$as$u20$core..iter..traits..iterator..Iterator$GT$4next17h0170e9c6952d9f9fE:
.fnstart
.save	{r7, lr}
push	{r7, lr}
.setfp	r7, sp
add	r7, sp, #0
mov	r1, r0
ldr	r0, [r0, #16]
ldr	r2, .LCPI0_0
str	r2, [r1, #16]
cmp	r0, r2
bne	.LBB0_2
mov	r0, r1
bl	_ZN110_$LT$core..iter..adapters..enumerate..Enumerate$LT$I$GT$$u20$as$u20$core..iter..traits..iterator..Iterator$GT$4next17h18f19f2e8c0ef0d6E
mov	r0, r1
.LBB0_2:
pop	{r7, pc}
.p2align	2
.LCPI0_0:
.long	1114113
.Lfunc_end0:
.size	_ZN108_$LT$core..iter..adapters..peekable..Peekable$LT$I$GT$$u20$as$u20$core..iter..traits..iterator..Iterator$GT$4next17h0170e9c6952d9f9fE, .Lfunc_end0-_ZN108_$LT$core..iter..adapters..peekable..Peekable$LT$I$GT$$u20$as$u20$core..iter..traits..iterator..Iterator$GT$4next17h0170e9c6952d9f9fE
.cantunwind
.fnend

.section	".text._ZN110_$LT$core..iter..adapters..enumerate..Enumerate$LT$I$GT$$u20$as$u20$core..iter..traits..iterator..Iterator$GT$4next17h18f19f2e8c0ef0d6E","ax",%progbits
.p2align	1
.type	_ZN110_$LT$core..iter..adapters..enumerate..Enumerate$LT$I$GT$$u20$as$u20$core..iter..traits..iterator..Iterator$GT$4next17h18f19f2e8c0ef0d6E,%function
.code	16
.thumb_func
_ZN110_$LT$core..iter..adapters..enumerate..Enumerate$LT$I$GT$$u20$as$u20$core..iter..traits..iterator..Iterator$GT$4next17h18f19f2e8c0ef0d6E:
.fnstart
ldr	r2, [r0]
ldr	r1, [r0, #4]
cmp	r2, r1
beq	.LBB1_2
ldm	r2!, {r1}
str	r2, [r0]
ldr	r2, [r0, #8]
adds	r3, r2, #1
str	r3, [r0, #8]
b	.LBB1_3
.LBB1_2:
movs	r0, #17
lsls	r1, r0, #16
.LBB1_3:
mov	r0, r2
bx	lr
.Lfunc_end1:
.size	_ZN110_$LT$core..iter..adapters..enumerate..Enumerate$LT$I$GT$$u20$as$u20$core..iter..traits..iterator..Iterator$GT$4next17h18f19f2e8c0ef0d6E, .Lfunc_end1-_ZN110_$LT$core..iter..adapters..enumerate..Enumerate$LT$I$GT$$u20$as$u20$core..iter..traits..iterator..Iterator$GT$4next17h18f19f2e8c0ef0d6E
.cantunwind
.fnend

.section	".text._ZN4core3cmp5impls69_$LT$impl$u20$core..cmp..PartialEq$LT$$RF$B$GT$$u20$for$u20$$RF$A$GT$2eq17h27a051c63443aa73E","ax",%progbits
.p2align	2
.type	_ZN4core3cmp5impls69_$LT$impl$u20$core..cmp..PartialEq$LT$$RF$B$GT$$u20$for$u20$$RF$A$GT$2eq17h27a051c63443aa73E,%function
.code	16
.thumb_func
_ZN4core3cmp5impls69_$LT$impl$u20$core..cmp..PartialEq$LT$$RF$B$GT$$u20$for$u20$$RF$A$GT$2eq17h27a051c63443aa73E:
.fnstart
.save	{r4, r6, r7, lr}
.pad	#16
push	{r0, r1, r2, r3, r4, r6, r7, lr}
.setfp	r7, sp, #24
add	r7, sp, #24
ldr	r2, [r0]
ldr	r0, [r2]
ldr	r2, [r2, #8]
ldr	r3, [r1]
ldr	r1, [r1, #4]
ldr	r4, .LCPI2_0
str	r4, [sp, #12]
adds	r1, r3, r1
str	r1, [sp, #8]
str	r3, [sp, #4]
lsls	r1, r2, #2
adds	r1, r0, r1
add	r2, sp, #4
bl	_ZN4core4iter6traits8iterator8Iterator2eq17h484a72898bd40c34E
add	sp, #16
pop	{r4, r6, r7, pc}
.p2align	2
.LCPI2_0:
.long	_ZN4core3ops8function6FnOnce9call_once17h6ae8bb8ea723e751E
.Lfunc_end2:
.size	_ZN4core3cmp5impls69_$LT$impl$u20$core..cmp..PartialEq$LT$$RF$B$GT$$u20$for$u20$$RF$A$GT$2eq17h27a051c63443aa73E, .Lfunc_end2-_ZN4core3cmp5impls69_$LT$impl$u20$core..cmp..PartialEq$LT$$RF$B$GT$$u20$for$u20$$RF$A$GT$2eq17h27a051c63443aa73E
.cantunwind
.fnend

.section	".text._ZN4core3cmp5impls69_$LT$impl$u20$core..cmp..PartialEq$LT$$RF$B$GT$$u20$for$u20$$RF$A$GT$2eq17hbfb8b3e3e3cacb84E","ax",%progbits
.p2align	1
.type	_ZN4core3cmp5impls69_$LT$impl$u20$core..cmp..PartialEq$LT$$RF$B$GT$$u20$for$u20$$RF$A$GT$2eq17hbfb8b3e3e3cacb84E,%function
.code	16
.thumb_func
_ZN4core3cmp5impls69_$LT$impl$u20$core..cmp..PartialEq$LT$$RF$B$GT$$u20$for$u20$$RF$A$GT$2eq17hbfb8b3e3e3cacb84E:
.fnstart
.save	{r7, lr}
push	{r7, lr}
.setfp	r7, sp
add	r7, sp, #0
ldr	r0, [r0]
ldr	r2, [r0, #8]
ldr	r1, [r1]
ldr	r3, [r1, #8]
cmp	r2, r3
bne	.LBB3_2
ldr	r0, [r0]
ldr	r1, [r1]
lsls	r2, r2, #2
bl	__aeabi_memcmp
mov	r1, r0
rsbs	r0, r0, #0
adcs	r0, r1
pop	{r7, pc}
.LBB3_2:
movs	r0, #0
pop	{r7, pc}
.Lfunc_end3:
.size	_ZN4core3cmp5impls69_$LT$impl$u20$core..cmp..PartialEq$LT$$RF$B$GT$$u20$for$u20$$RF$A$GT$2eq17hbfb8b3e3e3cacb84E, .Lfunc_end3-_ZN4core3cmp5impls69_$LT$impl$u20$core..cmp..PartialEq$LT$$RF$B$GT$$u20$for$u20$$RF$A$GT$2eq17hbfb8b3e3e3cacb84E
.cantunwind
.fnend

.section	.text._ZN4core3ops8function6FnOnce9call_once17h00d1ccf0aae34382E,"ax",%progbits
.p2align	2
.type	_ZN4core3ops8function6FnOnce9call_once17h00d1ccf0aae34382E,%function
.code	16
.thumb_func
_ZN4core3ops8function6FnOnce9call_once17h00d1ccf0aae34382E:
.fnstart
.save	{r4, r5, r6, r7, lr}
.pad	#12
push	{r1, r2, r3, r4, r5, r6, r7, lr}
.setfp	r7, sp, #24
add	r7, sp, #24
mov	r1, r2
mov	r4, r0
mov	r0, sp
ldr	r2, .LCPI4_0
movs	r5, #5
mov	r3, r5
bl	_ZN4lisp4lisp3val8LispList10expect_car17h8f7187e674c3274aE
ldr	r0, [sp]
cmp	r0, #0
beq	.LBB4_2
ldr	r1, [sp, #4]
ldr	r2, [sp, #8]
stm	r4!, {r0, r1, r2}
pop	{r1, r2, r3, r4, r5, r6, r7, pc}
.LBB4_2:
ldr	r0, [sp, #4]
ldr	r0, [r0]
ldr	r0, [r0, #44]
movs	r2, #1
lsls	r3, r2, #16
ldr	r1, [r3]
movs	r6, #64
str	r6, [r1]
mov	r6, r1
adds	r6, #68
str	r6, [r3]
movs	r3, #0
adds	r6, r1, #4
stm	r4!, {r3, r6}
str	r5, [r1, #48]
str	r3, [r1, #8]
str	r2, [r1, #4]
subs	r0, #11
rsbs	r2, r0, #0
adcs	r2, r0
strb	r2, [r1, #12]
pop	{r1, r2, r3, r4, r5, r6, r7, pc}
.p2align	2
.LCPI4_0:
.long	.L__unnamed_1
.Lfunc_end4:
.size	_ZN4core3ops8function6FnOnce9call_once17h00d1ccf0aae34382E, .Lfunc_end4-_ZN4core3ops8function6FnOnce9call_once17h00d1ccf0aae34382E
.cantunwind
.fnend

.section	.text._ZN4core3ops8function6FnOnce9call_once17h044855f76a72e44cE,"ax",%progbits
.p2align	2
.type	_ZN4core3ops8function6FnOnce9call_once17h044855f76a72e44cE,%function
.code	16
.thumb_func
_ZN4core3ops8function6FnOnce9call_once17h044855f76a72e44cE:
.fnstart
.save	{r4, r5, r6, r7, lr}
push	{r4, r5, r6, r7, lr}
.setfp	r7, sp, #12
add	r7, sp, #12
.pad	#20
sub	sp, #20
mov	r1, r2
mov	r4, r0
add	r0, sp, #8
ldr	r2, .LCPI5_0
movs	r5, #5
mov	r3, r5
bl	_ZN4lisp4lisp3val8LispList10expect_car17h8f7187e674c3274aE
ldr	r0, [sp, #8]
cmp	r0, #0
beq	.LBB5_2
ldr	r1, [sp, #12]
ldr	r2, [sp, #16]
stm	r4!, {r0, r1, r2}
b	.LBB5_3
.LBB5_2:
ldr	r0, [sp, #12]
ldr	r1, [r0]
ldr	r0, [r1, #8]
str	r0, [sp, #4]
ldr	r2, [r1, #44]
movs	r3, #1
lsls	r6, r3, #16
ldr	r1, [r6]
movs	r0, #64
str	r0, [r1]
mov	r0, r1
adds	r0, #68
str	r0, [r6]
movs	r0, #0
adds	r6, r1, #4
stm	r4!, {r0, r6}
str	r5, [r1, #48]
str	r0, [r1, #8]
str	r3, [r1, #4]
movs	r0, #8
eors	r0, r2
ldr	r2, [sp, #4]
orrs	r0, r2
rsbs	r2, r0, #0
adcs	r2, r0
strb	r2, [r1, #12]
.LBB5_3:
add	sp, #20
pop	{r4, r5, r6, r7, pc}
.p2align	2
.LCPI5_0:
.long	.L__unnamed_2
.Lfunc_end5:
.size	_ZN4core3ops8function6FnOnce9call_once17h044855f76a72e44cE, .Lfunc_end5-_ZN4core3ops8function6FnOnce9call_once17h044855f76a72e44cE
.cantunwind
.fnend

.section	.text._ZN4core3ops8function6FnOnce9call_once17h09fb0e486432b624E,"ax",%progbits
.p2align	1
.type	_ZN4core3ops8function6FnOnce9call_once17h09fb0e486432b624E,%function
.code	16
.thumb_func
_ZN4core3ops8function6FnOnce9call_once17h09fb0e486432b624E:
.fnstart
.save	{r7, lr}
push	{r7, lr}
.setfp	r7, sp
add	r7, sp, #0
mov	r1, r2
bl	_ZN4lisp4lisp4eval8builtins83_$LT$impl$u20$core..default..Default$u20$for$u20$lisp..lisp..env..SchemeEnvData$GT$7default9list_star17h84dc23c5c284b4e7E
pop	{r7, pc}
.Lfunc_end6:
.size	_ZN4core3ops8function6FnOnce9call_once17h09fb0e486432b624E, .Lfunc_end6-_ZN4core3ops8function6FnOnce9call_once17h09fb0e486432b624E
.cantunwind
.fnend

.section	.text._ZN4core3ops8function6FnOnce9call_once17h12fa83c056ab195aE,"ax",%progbits
.p2align	2
.type	_ZN4core3ops8function6FnOnce9call_once17h12fa83c056ab195aE,%function
.code	16
.thumb_func
_ZN4core3ops8function6FnOnce9call_once17h12fa83c056ab195aE:
.fnstart
.save	{r4, r5, r7, lr}
.pad	#8
push	{r2, r3, r4, r5, r7, lr}
.setfp	r7, sp, #16
add	r7, sp, #16
mov	r1, r2
mov	r4, r0
mov	r0, sp
bl	_ZN4lisp4lisp3val8LispList5get_n17h4104062bc77cc0bcE
ldr	r0, [sp]
cmp	r0, #0
beq	.LBB7_2
ldr	r1, [sp, #4]
bl	_ZN59_$LT$lisp..Prc$LT$T$GT$$u20$as$u20$core..cmp..PartialEq$GT$2eq17hd7c8c14caefa801fE
movs	r1, #1
lsls	r2, r1, #16
ldr	r3, [r2]
movs	r5, #64
str	r5, [r3]
mov	r5, r3
adds	r5, #68
str	r5, [r2]
movs	r2, #0
adds	r5, r3, #4
stm	r4!, {r2, r5}
movs	r4, #5
str	r4, [r3, #48]
strb	r0, [r3, #12]
str	r2, [r3, #8]
str	r1, [r3, #4]
pop	{r2, r3, r4, r5, r7, pc}
.LBB7_2:
ldr	r1, .LCPI7_0
movs	r2, #30
mov	r0, r4
bl	_ZN87_$LT$lisp..parm..heap..string..String$u20$as$u20$core..convert..From$LT$$RF$str$GT$$GT$4from17h25a10eb48256cf6dE
pop	{r2, r3, r4, r5, r7, pc}
.p2align	2
.LCPI7_0:
.long	.L__unnamed_3
.Lfunc_end7:
.size	_ZN4core3ops8function6FnOnce9call_once17h12fa83c056ab195aE, .Lfunc_end7-_ZN4core3ops8function6FnOnce9call_once17h12fa83c056ab195aE
.cantunwind
.fnend

.section	.text._ZN4core3ops8function6FnOnce9call_once17h1738c576a4e29863E,"ax",%progbits
.p2align	2
.type	_ZN4core3ops8function6FnOnce9call_once17h1738c576a4e29863E,%function
.code	16
.thumb_func
_ZN4core3ops8function6FnOnce9call_once17h1738c576a4e29863E:
.fnstart
.save	{r4, r6, r7, lr}
push	{r4, r6, r7, lr}
.setfp	r7, sp, #8
add	r7, sp, #8
.pad	#24
sub	sp, #24
mov	r4, r0
mov	r0, r2
bl	_ZN4lisp4lisp3val8LispList5get_n17h3a20a97af4f6f221E
cmp	r0, #0
beq	.LBB8_3
ldr	r1, [r0]
adds	r1, #8
add	r0, sp, #12
ldr	r2, .LCPI8_0
movs	r3, #3
bl	_ZN4lisp4lisp3val7LispVal11expect_list17h294e3e58bbc02a2aE
ldr	r0, [sp, #12]
cmp	r0, #0
beq	.LBB8_4
ldr	r1, [sp, #16]
ldr	r2, [sp, #20]
b	.LBB8_6
.LBB8_3:
ldr	r1, .LCPI8_0
movs	r2, #3
mov	r0, r4
bl	_ZN87_$LT$lisp..parm..heap..string..String$u20$as$u20$core..convert..From$LT$$RF$str$GT$$GT$4from17h25a10eb48256cf6dE
b	.LBB8_7
.LBB8_4:
ldr	r1, [sp, #16]
mov	r0, sp
ldr	r2, .LCPI8_0
movs	r3, #3
bl	_ZN4lisp4lisp3val8LispList10expect_car17h8f7187e674c3274aE
ldr	r0, [sp]
cmp	r0, #0
beq	.LBB8_8
ldr	r1, [sp, #4]
ldr	r2, [sp, #8]
.LBB8_6:
str	r0, [r4]
str	r1, [r4, #4]
str	r2, [r4, #8]
.LBB8_7:
add	sp, #24
pop	{r4, r6, r7, pc}
.LBB8_8:
ldr	r0, [sp, #4]
movs	r1, #0
ldr	r0, [r0]
str	r1, [r4]
str	r0, [r4, #4]
ldr	r1, [r0]
adds	r1, r1, #1
str	r1, [r0]
b	.LBB8_7
.p2align	2
.LCPI8_0:
.long	.L__unnamed_4
.Lfunc_end8:
.size	_ZN4core3ops8function6FnOnce9call_once17h1738c576a4e29863E, .Lfunc_end8-_ZN4core3ops8function6FnOnce9call_once17h1738c576a4e29863E
.cantunwind
.fnend

.section	.text._ZN4core3ops8function6FnOnce9call_once17h206f493a8e56730cE,"ax",%progbits
.p2align	1
.type	_ZN4core3ops8function6FnOnce9call_once17h206f493a8e56730cE,%function
.code	16
.thumb_func
_ZN4core3ops8function6FnOnce9call_once17h206f493a8e56730cE:
.fnstart
.save	{r4, r6, r7, lr}
push	{r4, r6, r7, lr}
.setfp	r7, sp, #8
add	r7, sp, #8
movs	r1, #1
lsls	r2, r1, #16
ldr	r3, [r2]
movs	r4, #64
str	r4, [r3]
mov	r4, r3
adds	r4, #68
str	r4, [r2]
movs	r2, #0
adds	r4, r3, #4
stm	r0!, {r2, r4}
movs	r0, #9
str	r0, [r3, #48]
str	r2, [r3, #8]
str	r1, [r3, #4]
pop	{r4, r6, r7, pc}
.Lfunc_end9:
.size	_ZN4core3ops8function6FnOnce9call_once17h206f493a8e56730cE, .Lfunc_end9-_ZN4core3ops8function6FnOnce9call_once17h206f493a8e56730cE
.cantunwind
.fnend

.section	.text._ZN4core3ops8function6FnOnce9call_once17h301f8e153ed1433fE,"ax",%progbits
.p2align	2
.type	_ZN4core3ops8function6FnOnce9call_once17h301f8e153ed1433fE,%function
.code	16
.thumb_func
_ZN4core3ops8function6FnOnce9call_once17h301f8e153ed1433fE:
.fnstart
.save	{r4, r5, r6, r7, lr}
.pad	#12
push	{r1, r2, r3, r4, r5, r6, r7, lr}
.setfp	r7, sp, #24
add	r7, sp, #24
mov	r4, r0
mov	r0, r2
bl	_ZN4lisp4lisp3val8LispList5get_n17h3a20a97af4f6f221E
cmp	r0, #0
beq	.LBB10_3
ldr	r1, [r0]
adds	r1, #8
mov	r0, sp
ldr	r2, .LCPI10_0
movs	r5, #5
mov	r3, r5
bl	_ZN4lisp4lisp3val7LispVal10expect_int17h19f09b58fab57fb9E
ldr	r0, [sp]
cmp	r0, #0
beq	.LBB10_4
ldr	r1, [sp, #4]
ldr	r2, [sp, #8]
stm	r4!, {r0, r1, r2}
pop	{r1, r2, r3, r4, r5, r6, r7, pc}
.LBB10_3:
ldr	r1, .LCPI10_0
movs	r2, #5
mov	r0, r4
bl	_ZN87_$LT$lisp..parm..heap..string..String$u20$as$u20$core..convert..From$LT$$RF$str$GT$$GT$4from17h25a10eb48256cf6dE
pop	{r1, r2, r3, r4, r5, r6, r7, pc}
.LBB10_4:
ldr	r1, [sp, #4]
movs	r0, #1
lsls	r3, r0, #16
ldr	r2, [r3]
movs	r6, #64
str	r6, [r2]
mov	r6, r2
adds	r6, #68
str	r6, [r3]
movs	r3, #0
adds	r6, r2, #4
stm	r4!, {r3, r6}
str	r5, [r2, #48]
rsbs	r4, r1, #0
adcs	r4, r1
strb	r4, [r2, #12]
str	r3, [r2, #8]
str	r0, [r2, #4]
pop	{r1, r2, r3, r4, r5, r6, r7, pc}
.p2align	2
.LCPI10_0:
.long	.L__unnamed_5
.Lfunc_end10:
.size	_ZN4core3ops8function6FnOnce9call_once17h301f8e153ed1433fE, .Lfunc_end10-_ZN4core3ops8function6FnOnce9call_once17h301f8e153ed1433fE
.cantunwind
.fnend

.section	.text._ZN4core3ops8function6FnOnce9call_once17h31a70982b22b695bE,"ax",%progbits
.p2align	2
.type	_ZN4core3ops8function6FnOnce9call_once17h31a70982b22b695bE,%function
.code	16
.thumb_func
_ZN4core3ops8function6FnOnce9call_once17h31a70982b22b695bE:
.fnstart
.save	{r4, r5, r6, r7, lr}
.pad	#12
push	{r1, r2, r3, r4, r5, r6, r7, lr}
.setfp	r7, sp, #24
add	r7, sp, #24
mov	r1, r2
mov	r4, r0
mov	r0, sp
bl	_ZN4lisp4lisp3val8LispList5get_n17h4104062bc77cc0bcE
ldr	r0, [sp]
cmp	r0, #0
beq	.LBB11_4
ldr	r5, [sp, #4]
ldr	r1, [r0]
adds	r1, #8
mov	r0, sp
ldr	r2, .LCPI11_0
movs	r3, #1
bl	_ZN4lisp4lisp3val7LispVal10expect_int17h19f09b58fab57fb9E
ldr	r0, [sp]
cmp	r0, #0
bne	.LBB11_3
ldr	r6, [sp, #4]
ldr	r1, [r5]
adds	r1, #8
mov	r0, sp
ldr	r2, .LCPI11_0
movs	r5, #1
mov	r3, r5
bl	_ZN4lisp4lisp3val7LispVal10expect_int17h19f09b58fab57fb9E
ldr	r0, [sp]
cmp	r0, #0
beq	.LBB11_5
.LBB11_3:
ldr	r1, [sp, #4]
ldr	r2, [sp, #8]
str	r0, [r4]
str	r1, [r4, #4]
str	r2, [r4, #8]
pop	{r1, r2, r3, r4, r5, r6, r7, pc}
.LBB11_4:
ldr	r1, .LCPI11_0
movs	r2, #1
mov	r0, r4
bl	_ZN87_$LT$lisp..parm..heap..string..String$u20$as$u20$core..convert..From$LT$$RF$str$GT$$GT$4from17h25a10eb48256cf6dE
pop	{r1, r2, r3, r4, r5, r6, r7, pc}
.LBB11_5:
ldr	r2, [sp, #4]
lsls	r1, r5, #16
ldr	r0, [r1]
movs	r3, #64
str	r3, [r0]
mov	r3, r0
adds	r3, #68
str	r3, [r1]
movs	r1, #0
adds	r3, r0, #4
stm	r4!, {r1, r3}
movs	r3, #5
str	r3, [r0, #48]
cmp	r6, r2
mov	r2, r5
blt	.LBB11_7
mov	r2, r1
.LBB11_7:
strb	r2, [r0, #12]
str	r5, [r0, #4]
str	r1, [r0, #8]
pop	{r1, r2, r3, r4, r5, r6, r7, pc}
.p2align	2
.LCPI11_0:
.long	.L__unnamed_6
.Lfunc_end11:
.size	_ZN4core3ops8function6FnOnce9call_once17h31a70982b22b695bE, .Lfunc_end11-_ZN4core3ops8function6FnOnce9call_once17h31a70982b22b695bE
.cantunwind
.fnend

.section	.text._ZN4core3ops8function6FnOnce9call_once17h3480cc5fff554984E,"ax",%progbits
.p2align	2
.type	_ZN4core3ops8function6FnOnce9call_once17h3480cc5fff554984E,%function
.code	16
.thumb_func
_ZN4core3ops8function6FnOnce9call_once17h3480cc5fff554984E:
.fnstart
.save	{r4, r6, r7, lr}
push	{r4, r6, r7, lr}
.setfp	r7, sp, #8
add	r7, sp, #8
.pad	#40
sub	sp, #40
mov	r4, r0
mov	r0, r2
bl	_ZN4lisp4lisp3val8LispList5get_n17h3a20a97af4f6f221E
cmp	r0, #0
beq	.LBB12_3
ldr	r1, [r0]
adds	r1, #8
add	r0, sp, #28
ldr	r2, .LCPI12_0
movs	r3, #5
bl	_ZN4lisp4lisp3val7LispVal11expect_list17h294e3e58bbc02a2aE
ldr	r0, [sp, #28]
cmp	r0, #0
beq	.LBB12_4
ldr	r1, [sp, #32]
ldr	r2, [sp, #36]
b	.LBB12_8
.LBB12_3:
ldr	r1, .LCPI12_0
movs	r2, #5
mov	r0, r4
bl	_ZN87_$LT$lisp..parm..heap..string..String$u20$as$u20$core..convert..From$LT$$RF$str$GT$$GT$4from17h25a10eb48256cf6dE
b	.LBB12_9
.LBB12_4:
ldr	r1, [sp, #32]
add	r0, sp, #16
ldr	r2, .LCPI12_0
movs	r3, #5
bl	_ZN4lisp4lisp3val8LispList15expect_cdr_list17h966171acdec654f3E
ldr	r0, [sp, #16]
cmp	r0, #0
beq	.LBB12_6
ldr	r1, [sp, #20]
ldr	r2, [sp, #24]
b	.LBB12_8
.LBB12_6:
ldr	r1, [sp, #20]
add	r0, sp, #4
ldr	r2, .LCPI12_0
movs	r3, #5
bl	_ZN4lisp4lisp3val8LispList11expect_cadr17hc60511602eada018E
ldr	r0, [sp, #4]
cmp	r0, #0
beq	.LBB12_10
ldr	r1, [sp, #8]
ldr	r2, [sp, #12]
.LBB12_8:
str	r0, [r4]
str	r1, [r4, #4]
str	r2, [r4, #8]
.LBB12_9:
add	sp, #40
pop	{r4, r6, r7, pc}
.LBB12_10:
ldr	r0, [sp, #8]
movs	r1, #0
ldr	r0, [r0]
str	r1, [r4]
str	r0, [r4, #4]
ldr	r1, [r0]
adds	r1, r1, #1
str	r1, [r0]
b	.LBB12_9
.p2align	2
.LCPI12_0:
.long	.L__unnamed_7
.Lfunc_end12:
.size	_ZN4core3ops8function6FnOnce9call_once17h3480cc5fff554984E, .Lfunc_end12-_ZN4core3ops8function6FnOnce9call_once17h3480cc5fff554984E
.cantunwind
.fnend

.section	.text._ZN4core3ops8function6FnOnce9call_once17h3bbc3a21f5defe92E,"ax",%progbits
.p2align	2
.type	_ZN4core3ops8function6FnOnce9call_once17h3bbc3a21f5defe92E,%function
.code	16
.thumb_func
_ZN4core3ops8function6FnOnce9call_once17h3bbc3a21f5defe92E:
.fnstart
.save	{r4, r5, r6, r7, lr}
.pad	#12
push	{r1, r2, r3, r4, r5, r6, r7, lr}
.setfp	r7, sp, #24
add	r7, sp, #24
mov	r1, r2
mov	r4, r0
mov	r0, sp
bl	_ZN4lisp4lisp3val8LispList5get_n17h4104062bc77cc0bcE
ldr	r0, [sp]
cmp	r0, #0
beq	.LBB13_4
ldr	r5, [sp, #4]
ldr	r1, [r0]
adds	r1, #8
mov	r0, sp
ldr	r2, .LCPI13_0
movs	r3, #1
bl	_ZN4lisp4lisp3val7LispVal10expect_int17h19f09b58fab57fb9E
ldr	r0, [sp]
cmp	r0, #0
bne	.LBB13_3
ldr	r6, [sp, #4]
ldr	r1, [r5]
adds	r1, #8
mov	r0, sp
ldr	r2, .LCPI13_0
movs	r5, #1
mov	r3, r5
bl	_ZN4lisp4lisp3val7LispVal10expect_int17h19f09b58fab57fb9E
ldr	r0, [sp]
cmp	r0, #0
beq	.LBB13_5
.LBB13_3:
ldr	r1, [sp, #4]
ldr	r2, [sp, #8]
str	r0, [r4]
str	r1, [r4, #4]
str	r2, [r4, #8]
pop	{r1, r2, r3, r4, r5, r6, r7, pc}
.LBB13_4:
ldr	r1, .LCPI13_0
movs	r2, #1
mov	r0, r4
bl	_ZN87_$LT$lisp..parm..heap..string..String$u20$as$u20$core..convert..From$LT$$RF$str$GT$$GT$4from17h25a10eb48256cf6dE
pop	{r1, r2, r3, r4, r5, r6, r7, pc}
.LBB13_5:
ldr	r2, [sp, #4]
lsls	r1, r5, #16
ldr	r0, [r1]
movs	r3, #64
str	r3, [r0]
mov	r3, r0
adds	r3, #68
str	r3, [r1]
movs	r1, #0
adds	r3, r0, #4
stm	r4!, {r1, r3}
movs	r3, #5
str	r3, [r0, #48]
cmp	r6, r2
mov	r2, r5
bgt	.LBB13_7
mov	r2, r1
.LBB13_7:
strb	r2, [r0, #12]
str	r5, [r0, #4]
str	r1, [r0, #8]
pop	{r1, r2, r3, r4, r5, r6, r7, pc}
.p2align	2
.LCPI13_0:
.long	.L__unnamed_8
.Lfunc_end13:
.size	_ZN4core3ops8function6FnOnce9call_once17h3bbc3a21f5defe92E, .Lfunc_end13-_ZN4core3ops8function6FnOnce9call_once17h3bbc3a21f5defe92E
.cantunwind
.fnend

.section	.text._ZN4core3ops8function6FnOnce9call_once17h431597bb0e22d9d1E,"ax",%progbits
.p2align	2
.type	_ZN4core3ops8function6FnOnce9call_once17h431597bb0e22d9d1E,%function
.code	16
.thumb_func
_ZN4core3ops8function6FnOnce9call_once17h431597bb0e22d9d1E:
.fnstart
.save	{r4, r6, r7, lr}
push	{r4, r6, r7, lr}
.setfp	r7, sp, #8
add	r7, sp, #8
.pad	#24
sub	sp, #24
mov	r4, r0
mov	r0, r2
bl	_ZN4lisp4lisp3val8LispList5get_n17h3a20a97af4f6f221E
cmp	r0, #0
beq	.LBB14_3
ldr	r1, [r0]
adds	r1, #8
add	r0, sp, #12
ldr	r2, .LCPI14_0
movs	r3, #3
bl	_ZN4lisp4lisp3val7LispVal11expect_list17h294e3e58bbc02a2aE
ldr	r0, [sp, #12]
cmp	r0, #0
beq	.LBB14_4
ldr	r1, [sp, #16]
ldr	r2, [sp, #20]
b	.LBB14_6
.LBB14_3:
ldr	r1, .LCPI14_0
movs	r2, #3
mov	r0, r4
bl	_ZN87_$LT$lisp..parm..heap..string..String$u20$as$u20$core..convert..From$LT$$RF$str$GT$$GT$4from17h25a10eb48256cf6dE
b	.LBB14_7
.LBB14_4:
ldr	r1, [sp, #16]
mov	r0, sp
ldr	r2, .LCPI14_0
movs	r3, #3
bl	_ZN4lisp4lisp3val8LispList10expect_cdr17hd0b66696476ae54cE
ldr	r0, [sp]
cmp	r0, #0
beq	.LBB14_8
ldr	r1, [sp, #4]
ldr	r2, [sp, #8]
.LBB14_6:
str	r0, [r4]
str	r1, [r4, #4]
str	r2, [r4, #8]
.LBB14_7:
add	sp, #24
pop	{r4, r6, r7, pc}
.LBB14_8:
ldr	r0, [sp, #4]
movs	r1, #0
ldr	r0, [r0]
str	r1, [r4]
str	r0, [r4, #4]
ldr	r1, [r0]
adds	r1, r1, #1
str	r1, [r0]
b	.LBB14_7
.p2align	2
.LCPI14_0:
.long	.L__unnamed_9
.Lfunc_end14:
.size	_ZN4core3ops8function6FnOnce9call_once17h431597bb0e22d9d1E, .Lfunc_end14-_ZN4core3ops8function6FnOnce9call_once17h431597bb0e22d9d1E
.cantunwind
.fnend

.section	.text._ZN4core3ops8function6FnOnce9call_once17h44e0e205eb7fa965E,"ax",%progbits
.p2align	2
.type	_ZN4core3ops8function6FnOnce9call_once17h44e0e205eb7fa965E,%function
.code	16
.thumb_func
_ZN4core3ops8function6FnOnce9call_once17h44e0e205eb7fa965E:
.fnstart
.save	{r4, r5, r7, lr}
.pad	#16
push	{r0, r1, r2, r3, r4, r5, r7, lr}
.setfp	r7, sp, #24
add	r7, sp, #24
mov	r4, r0
mov	r0, r2
bl	_ZN4lisp4lisp3val8LispList5get_n17h3a20a97af4f6f221E
cmp	r0, #0
beq	.LBB15_3
ldr	r1, [r0]
adds	r1, #8
add	r0, sp, #4
ldr	r2, .LCPI15_0
movs	r3, #9
bl	_ZN4lisp4lisp3val7LispVal10expect_int17h19f09b58fab57fb9E
ldr	r0, [sp, #4]
cmp	r0, #0
beq	.LBB15_4
ldr	r1, [sp, #8]
ldr	r2, [sp, #12]
stm	r4!, {r0, r1, r2}
pop	{r0, r1, r2, r3, r4, r5, r7, pc}
.LBB15_3:
ldr	r1, .LCPI15_0
movs	r2, #9
mov	r0, r4
bl	_ZN87_$LT$lisp..parm..heap..string..String$u20$as$u20$core..convert..From$LT$$RF$str$GT$$GT$4from17h25a10eb48256cf6dE
pop	{r0, r1, r2, r3, r4, r5, r7, pc}
.LBB15_4:
ldr	r1, [sp, #8]
movs	r0, #1
lsls	r3, r0, #16
ldr	r2, [r3]
movs	r5, #64
str	r5, [r2]
mov	r5, r2
adds	r5, #68
str	r5, [r3]
movs	r3, #0
adds	r5, r2, #4
stm	r4!, {r3, r5}
movs	r4, #5
str	r4, [r2, #48]
lsrs	r1, r1, #31
strb	r1, [r2, #12]
str	r3, [r2, #8]
str	r0, [r2, #4]
pop	{r0, r1, r2, r3, r4, r5, r7, pc}
.p2align	2
.LCPI15_0:
.long	.L__unnamed_10
.Lfunc_end15:
.size	_ZN4core3ops8function6FnOnce9call_once17h44e0e205eb7fa965E, .Lfunc_end15-_ZN4core3ops8function6FnOnce9call_once17h44e0e205eb7fa965E
.cantunwind
.fnend

.section	.text._ZN4core3ops8function6FnOnce9call_once17h470891a58205c890E,"ax",%progbits
.p2align	2
.type	_ZN4core3ops8function6FnOnce9call_once17h470891a58205c890E,%function
.code	16
.thumb_func
_ZN4core3ops8function6FnOnce9call_once17h470891a58205c890E:
.fnstart
.save	{r4, r5, r7, lr}
.pad	#16
push	{r0, r1, r2, r3, r4, r5, r7, lr}
.setfp	r7, sp, #24
add	r7, sp, #24
mov	r4, r0
ldr	r0, [r2]
cmp	r0, #0
beq	.LBB16_3
ldr	r1, [r2, #4]
adds	r1, #8
add	r0, sp, #4
ldr	r2, .LCPI16_0
movs	r3, #13
bl	_ZN4lisp4lisp3val7LispVal13expect_string17h839c7e0d9c3b51baE
ldr	r0, [sp, #4]
cmp	r0, #0
beq	.LBB16_4
ldr	r1, [sp, #8]
ldr	r2, [sp, #12]
stm	r4!, {r0, r1, r2}
pop	{r0, r1, r2, r3, r4, r5, r7, pc}
.LBB16_3:
ldr	r1, .LCPI16_0
movs	r2, #13
mov	r0, r4
bl	_ZN87_$LT$lisp..parm..heap..string..String$u20$as$u20$core..convert..From$LT$$RF$str$GT$$GT$4from17h25a10eb48256cf6dE
pop	{r0, r1, r2, r3, r4, r5, r7, pc}
.LBB16_4:
ldr	r0, [sp, #8]
ldr	r1, [r0, #8]
movs	r0, #1
lsls	r2, r0, #16
ldr	r3, [r2]
movs	r5, #64
str	r5, [r3]
mov	r5, r3
adds	r5, #68
str	r5, [r2]
movs	r2, #0
adds	r5, r3, #4
stm	r4!, {r2, r5}
movs	r4, #4
str	r4, [r3, #48]
str	r1, [r3, #12]
str	r2, [r3, #8]
str	r0, [r3, #4]
pop	{r0, r1, r2, r3, r4, r5, r7, pc}
.p2align	2
.LCPI16_0:
.long	.L__unnamed_11
.Lfunc_end16:
.size	_ZN4core3ops8function6FnOnce9call_once17h470891a58205c890E, .Lfunc_end16-_ZN4core3ops8function6FnOnce9call_once17h470891a58205c890E
.cantunwind
.fnend

.section	.text._ZN4core3ops8function6FnOnce9call_once17h5e65a08b75e54d22E,"ax",%progbits
.p2align	2
.type	_ZN4core3ops8function6FnOnce9call_once17h5e65a08b75e54d22E,%function
.code	16
.thumb_func
_ZN4core3ops8function6FnOnce9call_once17h5e65a08b75e54d22E:
.fnstart
.save	{r4, r5, r7, lr}
.pad	#8
push	{r2, r3, r4, r5, r7, lr}
.setfp	r7, sp, #16
add	r7, sp, #16
mov	r4, r0
mov	r0, r2
bl	_ZN4lisp4lisp3val8LispList5get_n17h3a20a97af4f6f221E
cmp	r0, #0
beq	.LBB17_2
movs	r5, #0
str	r5, [sp, #4]
add	r1, sp, #4
bl	_ZN55_$LT$lisp..Prc$LT$T$GT$$u20$as$u20$core..hash..Hash$GT$4hash17hbf5bd7f1f13af649E
movs	r0, #1
lsls	r1, r0, #16
ldr	r2, [r1]
movs	r3, #64
str	r3, [r2]
mov	r3, r2
adds	r3, #68
str	r3, [r1]
adds	r1, r2, #4
str	r5, [r4]
str	r1, [r4, #4]
movs	r1, #4
str	r1, [r2, #48]
ldr	r1, [sp, #4]
str	r1, [r2, #12]
str	r5, [r2, #8]
str	r0, [r2, #4]
pop	{r2, r3, r4, r5, r7, pc}
.LBB17_2:
ldr	r1, .LCPI17_0
movs	r2, #9
mov	r0, r4
bl	_ZN87_$LT$lisp..parm..heap..string..String$u20$as$u20$core..convert..From$LT$$RF$str$GT$$GT$4from17h25a10eb48256cf6dE
pop	{r2, r3, r4, r5, r7, pc}
.p2align	2
.LCPI17_0:
.long	.L__unnamed_12
.Lfunc_end17:
.size	_ZN4core3ops8function6FnOnce9call_once17h5e65a08b75e54d22E, .Lfunc_end17-_ZN4core3ops8function6FnOnce9call_once17h5e65a08b75e54d22E
.cantunwind
.fnend

.section	.text._ZN4core3ops8function6FnOnce9call_once17h5fb337d0e89c57ceE,"ax",%progbits
.p2align	1
.type	_ZN4core3ops8function6FnOnce9call_once17h5fb337d0e89c57ceE,%function
.code	16
.thumb_func
_ZN4core3ops8function6FnOnce9call_once17h5fb337d0e89c57ceE:
.fnstart
.save	{r4, r5, r6, r7, lr}
.pad	#4
push	{r3, r4, r5, r6, r7, lr}
.setfp	r7, sp, #16
add	r7, sp, #16
mov	r4, r2
mov	r5, r0
mov	r0, r1
bl	_ZN4lisp4lisp3env9SchemeEnv10make_child17hc002d9f406dacb2fE
str	r0, [sp]
mov	r6, sp
mov	r0, r6
bl	_ZN4lisp12Prc$LT$T$GT$10borrow_mut17h92d1b754b9bd4d6dE
movs	r2, #40
movs	r3, #1
strb	r3, [r0, r2]
ldr	r0, [r1]
adds	r0, r0, #1
str	r0, [r1]
mov	r0, r5
mov	r1, r6
mov	r2, r4
bl	_ZN4lisp4lisp4eval44_$LT$impl$u20$lisp..lisp..env..SchemeEnv$GT$10eval_begin17ha4e7048124b69c98E
ldr	r0, [sp]
ldr	r1, [r0]
subs	r1, r1, #1
beq	.LBB18_2
str	r1, [r0]
.LBB18_2:
pop	{r3, r4, r5, r6, r7, pc}
.Lfunc_end18:
.size	_ZN4core3ops8function6FnOnce9call_once17h5fb337d0e89c57ceE, .Lfunc_end18-_ZN4core3ops8function6FnOnce9call_once17h5fb337d0e89c57ceE
.cantunwind
.fnend

.section	.text._ZN4core3ops8function6FnOnce9call_once17h62b52d68b90051d8E,"ax",%progbits
.p2align	2
.type	_ZN4core3ops8function6FnOnce9call_once17h62b52d68b90051d8E,%function
.code	16
.thumb_func
_ZN4core3ops8function6FnOnce9call_once17h62b52d68b90051d8E:
.fnstart
.save	{r4, r5, r6, r7, lr}
.pad	#12
push	{r1, r2, r3, r4, r5, r6, r7, lr}
.setfp	r7, sp, #24
add	r7, sp, #24
mov	r1, r2
mov	r4, r0
add	r0, sp, #4
bl	_ZN4lisp4lisp3val8LispList5get_n17h4104062bc77cc0bcE
ldr	r1, [sp, #4]
cmp	r1, #0
beq	.LBB19_2
ldr	r0, [sp, #8]
ldr	r0, [r0]
ldr	r2, [r1]
movs	r3, #1
lsls	r5, r3, #16
ldr	r1, [r5]
movs	r6, #64
str	r6, [r1]
mov	r6, r1
adds	r6, #68
str	r6, [r5]
movs	r5, #0
adds	r6, r1, #4
stm	r4!, {r5, r6}
movs	r4, #5
str	r4, [r1, #48]
str	r5, [r1, #8]
str	r3, [r1, #4]
subs	r0, r2, r0
rsbs	r2, r0, #0
adcs	r2, r0
strb	r2, [r1, #12]
pop	{r1, r2, r3, r4, r5, r6, r7, pc}
.LBB19_2:
ldr	r1, .LCPI19_0
movs	r2, #27
mov	r0, r4
bl	_ZN87_$LT$lisp..parm..heap..string..String$u20$as$u20$core..convert..From$LT$$RF$str$GT$$GT$4from17h25a10eb48256cf6dE
pop	{r1, r2, r3, r4, r5, r6, r7, pc}
.p2align	2
.LCPI19_0:
.long	.L__unnamed_13
.Lfunc_end19:
.size	_ZN4core3ops8function6FnOnce9call_once17h62b52d68b90051d8E, .Lfunc_end19-_ZN4core3ops8function6FnOnce9call_once17h62b52d68b90051d8E
.cantunwind
.fnend

.section	.text._ZN4core3ops8function6FnOnce9call_once17h6ae8bb8ea723e751E,"ax",%progbits
.p2align	1
.type	_ZN4core3ops8function6FnOnce9call_once17h6ae8bb8ea723e751E,%function
.code	16
.thumb_func
_ZN4core3ops8function6FnOnce9call_once17h6ae8bb8ea723e751E:
.fnstart
uxtb	r0, r0
bx	lr
.Lfunc_end20:
.size	_ZN4core3ops8function6FnOnce9call_once17h6ae8bb8ea723e751E, .Lfunc_end20-_ZN4core3ops8function6FnOnce9call_once17h6ae8bb8ea723e751E
.cantunwind
.fnend

.section	.text._ZN4core3ops8function6FnOnce9call_once17h6bf0cb1ecf8bab56E,"ax",%progbits
.p2align	2
.type	_ZN4core3ops8function6FnOnce9call_once17h6bf0cb1ecf8bab56E,%function
.code	16
.thumb_func
_ZN4core3ops8function6FnOnce9call_once17h6bf0cb1ecf8bab56E:
.fnstart
.save	{r4, r5, r6, r7, lr}
.pad	#12
push	{r1, r2, r3, r4, r5, r6, r7, lr}
.setfp	r7, sp, #24
add	r7, sp, #24
mov	r1, r2
mov	r4, r0
mov	r0, sp
bl	_ZN4lisp4lisp3val8LispList5get_n17h4104062bc77cc0bcE
ldr	r0, [sp]
cmp	r0, #0
beq	.LBB21_4
ldr	r6, [sp, #4]
ldr	r1, [r0]
adds	r1, #8
mov	r0, sp
ldr	r2, .LCPI21_0
movs	r3, #2
bl	_ZN4lisp4lisp3val7LispVal10expect_int17h19f09b58fab57fb9E
ldr	r0, [sp]
cmp	r0, #0
bne	.LBB21_3
ldr	r5, [sp, #4]
ldr	r1, [r6]
adds	r1, #8
mov	r0, sp
ldr	r2, .LCPI21_0
movs	r3, #2
bl	_ZN4lisp4lisp3val7LispVal10expect_int17h19f09b58fab57fb9E
ldr	r0, [sp]
cmp	r0, #0
beq	.LBB21_5
.LBB21_3:
ldr	r1, [sp, #4]
ldr	r2, [sp, #8]
str	r0, [r4]
str	r1, [r4, #4]
str	r2, [r4, #8]
pop	{r1, r2, r3, r4, r5, r6, r7, pc}
.LBB21_4:
ldr	r1, .LCPI21_0
movs	r2, #2
mov	r0, r4
bl	_ZN87_$LT$lisp..parm..heap..string..String$u20$as$u20$core..convert..From$LT$$RF$str$GT$$GT$4from17h25a10eb48256cf6dE
pop	{r1, r2, r3, r4, r5, r6, r7, pc}
.LBB21_5:
ldr	r2, [sp, #4]
movs	r0, #1
lsls	r3, r0, #16
ldr	r1, [r3]
movs	r6, #64
str	r6, [r1]
mov	r6, r1
adds	r6, #68
str	r6, [r3]
movs	r3, #0
adds	r6, r1, #4
stm	r4!, {r3, r6}
movs	r4, #5
str	r4, [r1, #48]
cmp	r5, r2
mov	r2, r0
ble	.LBB21_7
mov	r2, r3
.LBB21_7:
strb	r2, [r1, #12]
str	r0, [r1, #4]
str	r3, [r1, #8]
pop	{r1, r2, r3, r4, r5, r6, r7, pc}
.p2align	2
.LCPI21_0:
.long	.L__unnamed_14
.Lfunc_end21:
.size	_ZN4core3ops8function6FnOnce9call_once17h6bf0cb1ecf8bab56E, .Lfunc_end21-_ZN4core3ops8function6FnOnce9call_once17h6bf0cb1ecf8bab56E
.cantunwind
.fnend

.section	.text._ZN4core3ops8function6FnOnce9call_once17h6e5c88d7a057dc1bE,"ax",%progbits
.p2align	2
.type	_ZN4core3ops8function6FnOnce9call_once17h6e5c88d7a057dc1bE,%function
.code	16
.thumb_func
_ZN4core3ops8function6FnOnce9call_once17h6e5c88d7a057dc1bE:
.fnstart
.save	{r4, r6, r7, lr}
.pad	#16
push	{r0, r1, r2, r3, r4, r6, r7, lr}
.setfp	r7, sp, #24
add	r7, sp, #24
mov	r1, r2
mov	r4, r0
add	r0, sp, #4
ldr	r2, .LCPI22_0
movs	r3, #26
bl	_ZN4lisp4lisp3val8LispList10expect_car17h8f7187e674c3274aE
ldr	r0, [sp, #4]
cmp	r0, #0
beq	.LBB22_2
ldr	r1, [sp, #8]
ldr	r2, [sp, #12]
stm	r4!, {r0, r1, r2}
pop	{r0, r1, r2, r3, r4, r6, r7, pc}
.LBB22_2:
ldr	r0, [sp, #8]
ldr	r1, [r0]
ldr	r2, [r1, #44]
cmp	r2, #6
bne	.LBB22_9
ldr	r0, [r1, #8]
ldr	r1, [r1, #16]
lsls	r1, r1, #2
.LBB22_4:
cmp	r1, #0
beq	.LBB22_10
ldm	r0!, {r2}
lsrs	r3, r2, #8
beq	.LBB22_7
movs	r2, #63
b	.LBB22_8
.LBB22_7:
uxtb	r2, r2
.LBB22_8:
movs	r3, #255
mvns	r3, r3
str	r2, [r3]
subs	r1, r1, #4
b	.LBB22_4
.LBB22_9:
bl	_ZN63_$LT$lisp..Prc$LT$T$GT$$u20$as$u20$lisp..parm..tty..Display$GT$5write17h751a30208dcd1920E
.LBB22_10:
movs	r0, #1
lsls	r1, r0, #16
ldr	r2, [r1]
movs	r3, #64
str	r3, [r2]
mov	r3, r2
adds	r3, #68
str	r3, [r1]
movs	r1, #0
adds	r3, r2, #4
stm	r4!, {r1, r3}
movs	r3, #9
str	r3, [r2, #48]
str	r1, [r2, #8]
str	r0, [r2, #4]
pop	{r0, r1, r2, r3, r4, r6, r7, pc}
.p2align	2
.LCPI22_0:
.long	.L__unnamed_15
.Lfunc_end22:
.size	_ZN4core3ops8function6FnOnce9call_once17h6e5c88d7a057dc1bE, .Lfunc_end22-_ZN4core3ops8function6FnOnce9call_once17h6e5c88d7a057dc1bE
.cantunwind
.fnend

.section	.text._ZN4core3ops8function6FnOnce9call_once17h6fa063bed9273eeaE,"ax",%progbits
.p2align	2
.type	_ZN4core3ops8function6FnOnce9call_once17h6fa063bed9273eeaE,%function
.code	16
.thumb_func
_ZN4core3ops8function6FnOnce9call_once17h6fa063bed9273eeaE:
.fnstart
.save	{r4, r5, r7, lr}
push	{r4, r5, r7, lr}
.setfp	r7, sp, #8
add	r7, sp, #8
mov	r4, r0
mov	r0, r2
bl	_ZN4lisp4lisp3val8LispList5get_n17h3a20a97af4f6f221E
cmp	r0, #0
beq	.LBB23_2
ldr	r0, [r0]
ldr	r0, [r0, #44]
movs	r2, #1
lsls	r3, r2, #16
ldr	r1, [r3]
movs	r5, #64
str	r5, [r1]
mov	r5, r1
adds	r5, #68
str	r5, [r3]
movs	r3, #0
adds	r5, r1, #4
stm	r4!, {r3, r5}
movs	r4, #5
str	r4, [r1, #48]
str	r3, [r1, #8]
str	r2, [r1, #4]
subs	r0, #12
rsbs	r2, r0, #0
adcs	r2, r0
strb	r2, [r1, #12]
pop	{r4, r5, r7, pc}
.LBB23_2:
ldr	r1, .LCPI23_0
movs	r2, #34
mov	r0, r4
bl	_ZN87_$LT$lisp..parm..heap..string..String$u20$as$u20$core..convert..From$LT$$RF$str$GT$$GT$4from17h25a10eb48256cf6dE
pop	{r4, r5, r7, pc}
.p2align	2
.LCPI23_0:
.long	.L__unnamed_16
.Lfunc_end23:
.size	_ZN4core3ops8function6FnOnce9call_once17h6fa063bed9273eeaE, .Lfunc_end23-_ZN4core3ops8function6FnOnce9call_once17h6fa063bed9273eeaE
.cantunwind
.fnend

.section	.text._ZN4core3ops8function6FnOnce9call_once17h73a12c079da3ca25E,"ax",%progbits
.p2align	2
.type	_ZN4core3ops8function6FnOnce9call_once17h73a12c079da3ca25E,%function
.code	16
.thumb_func
_ZN4core3ops8function6FnOnce9call_once17h73a12c079da3ca25E:
.fnstart
.save	{r4, r6, r7, lr}
push	{r4, r6, r7, lr}
.setfp	r7, sp, #8
add	r7, sp, #8
.pad	#24
sub	sp, #24
mov	r4, r0
mov	r0, r2
bl	_ZN4lisp4lisp3val8LispList5get_n17h3a20a97af4f6f221E
cmp	r0, #0
beq	.LBB24_3
ldr	r1, [r0]
adds	r1, #8
add	r0, sp, #12
ldr	r2, .LCPI24_0
movs	r3, #4
bl	_ZN4lisp4lisp3val7LispVal11expect_list17h294e3e58bbc02a2aE
ldr	r0, [sp, #12]
cmp	r0, #0
beq	.LBB24_4
ldr	r1, [sp, #16]
ldr	r2, [sp, #20]
b	.LBB24_6
.LBB24_3:
ldr	r1, .LCPI24_0
movs	r2, #4
mov	r0, r4
bl	_ZN87_$LT$lisp..parm..heap..string..String$u20$as$u20$core..convert..From$LT$$RF$str$GT$$GT$4from17h25a10eb48256cf6dE
b	.LBB24_7
.LBB24_4:
ldr	r1, [sp, #16]
mov	r0, sp
ldr	r2, .LCPI24_0
movs	r3, #4
bl	_ZN4lisp4lisp3val8LispList11expect_cadr17hc60511602eada018E
ldr	r0, [sp]
cmp	r0, #0
beq	.LBB24_8
ldr	r1, [sp, #4]
ldr	r2, [sp, #8]
.LBB24_6:
str	r0, [r4]
str	r1, [r4, #4]
str	r2, [r4, #8]
.LBB24_7:
add	sp, #24
pop	{r4, r6, r7, pc}
.LBB24_8:
ldr	r0, [sp, #4]
movs	r1, #0
ldr	r0, [r0]
str	r1, [r4]
str	r0, [r4, #4]
ldr	r1, [r0]
adds	r1, r1, #1
str	r1, [r0]
b	.LBB24_7
.p2align	2
.LCPI24_0:
.long	.L__unnamed_17
.Lfunc_end24:
.size	_ZN4core3ops8function6FnOnce9call_once17h73a12c079da3ca25E, .Lfunc_end24-_ZN4core3ops8function6FnOnce9call_once17h73a12c079da3ca25E
.cantunwind
.fnend

.section	.text._ZN4core3ops8function6FnOnce9call_once17h75207a36ba8da024E,"ax",%progbits
.p2align	2
.type	_ZN4core3ops8function6FnOnce9call_once17h75207a36ba8da024E,%function
.code	16
.thumb_func
_ZN4core3ops8function6FnOnce9call_once17h75207a36ba8da024E:
.fnstart
.save	{r4, r5, r6, r7, lr}
push	{r4, r5, r6, r7, lr}
.setfp	r7, sp, #12
add	r7, sp, #12
.pad	#36
sub	sp, #36
mov	r6, r2
mov	r5, r1
mov	r4, r0
add	r0, sp, #24
ldr	r2, .LCPI25_0
movs	r3, #4
mov	r1, r6
bl	_ZN4lisp4lisp3val8LispList10expect_car17h8f7187e674c3274aE
ldr	r0, [sp, #24]
cmp	r0, #0
beq	.LBB25_2
.LBB25_1:
ldr	r1, [sp, #28]
ldr	r2, [sp, #32]
b	.LBB25_4
.LBB25_2:
ldr	r0, [sp, #28]
ldr	r1, [r0]
adds	r1, #8
add	r0, sp, #12
ldr	r2, .LCPI25_0
movs	r3, #4
bl	_ZN4lisp4lisp3val7LispVal13expect_symbol17h18bca5646ce7453aE
ldr	r0, [sp, #12]
cmp	r0, #0
beq	.LBB25_6
.LBB25_3:
ldr	r1, [sp, #16]
ldr	r2, [sp, #20]
.LBB25_4:
str	r0, [r4]
str	r1, [r4, #4]
str	r2, [r4, #8]
.LBB25_5:
add	sp, #36
pop	{r4, r5, r6, r7, pc}
.LBB25_6:
ldr	r0, [sp, #16]
str	r0, [sp, #8]
add	r0, sp, #24
ldr	r2, .LCPI25_0
movs	r3, #4
mov	r1, r6
bl	_ZN4lisp4lisp3val8LispList11expect_cadr17hc60511602eada018E
ldr	r0, [sp, #24]
cmp	r0, #0
bne	.LBB25_1
ldr	r2, [sp, #28]
add	r0, sp, #12
mov	r1, r5
bl	_ZN4lisp4lisp4eval44_$LT$impl$u20$lisp..lisp..env..SchemeEnv$GT$4eval17h99d6ff1af80af22dE
ldr	r0, [sp, #12]
cmp	r0, #0
bne	.LBB25_3
ldr	r0, [sp, #16]
str	r0, [sp, #4]
add	r6, sp, #24
mov	r0, r6
ldr	r1, [sp, #8]
bl	_ZN71_$LT$lisp..parm..heap..string..String$u20$as$u20$core..clone..Clone$GT$5clone17hcfb3fae59d8e5176E
mov	r0, r5
mov	r1, r6
ldr	r2, [sp, #4]
bl	_ZN4lisp4lisp3env9SchemeEnv3set17h96598a60942bfc2cE
movs	r0, #1
lsls	r1, r0, #16
ldr	r2, [r1]
movs	r3, #64
str	r3, [r2]
mov	r3, r2
adds	r3, #68
str	r3, [r1]
movs	r1, #0
adds	r3, r2, #4
stm	r4!, {r1, r3}
movs	r3, #9
str	r3, [r2, #48]
str	r1, [r2, #8]
str	r0, [r2, #4]
b	.LBB25_5
.p2align	2
.LCPI25_0:
.long	.L__unnamed_18
.Lfunc_end25:
.size	_ZN4core3ops8function6FnOnce9call_once17h75207a36ba8da024E, .Lfunc_end25-_ZN4core3ops8function6FnOnce9call_once17h75207a36ba8da024E
.cantunwind
.fnend

.section	.text._ZN4core3ops8function6FnOnce9call_once17h78b68555c514c5ddE,"ax",%progbits
.p2align	1
.type	_ZN4core3ops8function6FnOnce9call_once17h78b68555c514c5ddE,%function
.code	16
.thumb_func
_ZN4core3ops8function6FnOnce9call_once17h78b68555c514c5ddE:
.fnstart
.save	{r4, r6, r7, lr}
push	{r4, r6, r7, lr}
.setfp	r7, sp, #8
add	r7, sp, #8
movs	r1, #255
mvns	r1, r1
movs	r2, #10
str	r2, [r1]
movs	r1, #1
lsls	r2, r1, #16
ldr	r3, [r2]
movs	r4, #64
str	r4, [r3]
mov	r4, r3
adds	r4, #68
str	r4, [r2]
movs	r2, #0
adds	r4, r3, #4
stm	r0!, {r2, r4}
movs	r0, #9
str	r0, [r3, #48]
str	r2, [r3, #8]
str	r1, [r3, #4]
pop	{r4, r6, r7, pc}
.Lfunc_end26:
.size	_ZN4core3ops8function6FnOnce9call_once17h78b68555c514c5ddE, .Lfunc_end26-_ZN4core3ops8function6FnOnce9call_once17h78b68555c514c5ddE
.cantunwind
.fnend

.section	.text._ZN4core3ops8function6FnOnce9call_once17h7d662472a83f6ed1E,"ax",%progbits
.p2align	2
.type	_ZN4core3ops8function6FnOnce9call_once17h7d662472a83f6ed1E,%function
.code	16
.thumb_func
_ZN4core3ops8function6FnOnce9call_once17h7d662472a83f6ed1E:
.fnstart
.save	{r4, r5, r6, r7, lr}
push	{r4, r5, r6, r7, lr}
.setfp	r7, sp, #12
add	r7, sp, #12
.pad	#20
sub	sp, #20
mov	r1, r2
mov	r4, r0
add	r0, sp, #8
ldr	r2, .LCPI27_0
movs	r5, #5
mov	r3, r5
bl	_ZN4lisp4lisp3val8LispList10expect_car17h8f7187e674c3274aE
ldr	r0, [sp, #8]
cmp	r0, #0
beq	.LBB27_2
ldr	r1, [sp, #12]
ldr	r2, [sp, #16]
stm	r4!, {r0, r1, r2}
b	.LBB27_3
.LBB27_2:
ldr	r0, [sp, #12]
ldr	r0, [r0]
ldr	r1, [r0, #44]
str	r1, [sp, #4]
ldr	r1, [r0, #8]
movs	r3, #1
lsls	r6, r3, #16
ldr	r0, [r6]
movs	r2, #64
str	r2, [r0]
mov	r2, r0
adds	r2, #68
str	r2, [r6]
movs	r2, #0
adds	r6, r0, #4
stm	r4!, {r2, r6}
str	r5, [r0, #48]
str	r2, [r0, #8]
str	r3, [r0, #4]
eors	r1, r3
movs	r2, #8
ldr	r3, [sp, #4]
eors	r2, r3
orrs	r2, r1
rsbs	r1, r2, #0
adcs	r1, r2
strb	r1, [r0, #12]
.LBB27_3:
add	sp, #20
pop	{r4, r5, r6, r7, pc}
.p2align	2
.LCPI27_0:
.long	.L__unnamed_19
.Lfunc_end27:
.size	_ZN4core3ops8function6FnOnce9call_once17h7d662472a83f6ed1E, .Lfunc_end27-_ZN4core3ops8function6FnOnce9call_once17h7d662472a83f6ed1E
.cantunwind
.fnend

.section	.text._ZN4core3ops8function6FnOnce9call_once17h8046cd776c3fdf8eE,"ax",%progbits
.p2align	2
.type	_ZN4core3ops8function6FnOnce9call_once17h8046cd776c3fdf8eE,%function
.code	16
.thumb_func
_ZN4core3ops8function6FnOnce9call_once17h8046cd776c3fdf8eE:
.fnstart
.save	{r4, r5, r7, lr}
.pad	#16
push	{r0, r1, r2, r3, r4, r5, r7, lr}
.setfp	r7, sp, #24
add	r7, sp, #24
mov	r4, r0
mov	r0, r2
bl	_ZN4lisp4lisp3val8LispList5get_n17h3a20a97af4f6f221E
cmp	r0, #0
beq	.LBB28_3
ldr	r1, [r0]
adds	r1, #8
add	r0, sp, #4
ldr	r2, .LCPI28_0
movs	r3, #9
bl	_ZN4lisp4lisp3val7LispVal10expect_int17h19f09b58fab57fb9E
ldr	r0, [sp, #4]
cmp	r0, #0
beq	.LBB28_4
ldr	r1, [sp, #8]
ldr	r2, [sp, #12]
stm	r4!, {r0, r1, r2}
pop	{r0, r1, r2, r3, r4, r5, r7, pc}
.LBB28_3:
ldr	r1, .LCPI28_0
movs	r2, #9
mov	r0, r4
bl	_ZN87_$LT$lisp..parm..heap..string..String$u20$as$u20$core..convert..From$LT$$RF$str$GT$$GT$4from17h25a10eb48256cf6dE
pop	{r0, r1, r2, r3, r4, r5, r7, pc}
.LBB28_4:
ldr	r2, [sp, #8]
movs	r0, #1
lsls	r3, r0, #16
ldr	r1, [r3]
movs	r5, #64
str	r5, [r1]
mov	r5, r1
adds	r5, #68
str	r5, [r3]
movs	r3, #0
adds	r5, r1, #4
stm	r4!, {r3, r5}
movs	r4, #5
str	r4, [r1, #48]
cmp	r2, #0
mov	r2, r0
bgt	.LBB28_6
mov	r2, r3
.LBB28_6:
strb	r2, [r1, #12]
str	r0, [r1, #4]
str	r3, [r1, #8]
pop	{r0, r1, r2, r3, r4, r5, r7, pc}
.p2align	2
.LCPI28_0:
.long	.L__unnamed_20
.Lfunc_end28:
.size	_ZN4core3ops8function6FnOnce9call_once17h8046cd776c3fdf8eE, .Lfunc_end28-_ZN4core3ops8function6FnOnce9call_once17h8046cd776c3fdf8eE
.cantunwind
.fnend

.section	.text._ZN4core3ops8function6FnOnce9call_once17h83de7b40e1bf6466E,"ax",%progbits
.p2align	2
.type	_ZN4core3ops8function6FnOnce9call_once17h83de7b40e1bf6466E,%function
.code	16
.thumb_func
_ZN4core3ops8function6FnOnce9call_once17h83de7b40e1bf6466E:
.fnstart
.save	{r4, r5, r6, r7, lr}
push	{r4, r5, r6, r7, lr}
.setfp	r7, sp, #12
add	r7, sp, #12
.pad	#20
sub	sp, #20
mov	r1, r2
mov	r4, r0
add	r0, sp, #8
bl	_ZN4lisp4lisp3val8LispList10get_n_iter17h1a6c59445730aa55E
ldr	r0, [sp, #8]
cmp	r0, #0
beq	.LBB29_3
ldr	r5, [sp, #12]
ldr	r1, [r0]
adds	r1, #8
add	r0, sp, #8
ldr	r2, .LCPI29_0
movs	r6, #1
mov	r3, r6
bl	_ZN4lisp4lisp3val7LispVal10expect_int17h19f09b58fab57fb9E
ldr	r0, [sp, #8]
cmp	r0, #0
beq	.LBB29_4
ldr	r1, [sp, #12]
ldr	r2, [sp, #16]
stm	r4!, {r0, r1, r2}
b	.LBB29_13
.LBB29_3:
ldr	r1, .LCPI29_0
movs	r2, #1
mov	r0, r4
bl	_ZN87_$LT$lisp..parm..heap..string..String$u20$as$u20$core..convert..From$LT$$RF$str$GT$$GT$4from17h25a10eb48256cf6dE
b	.LBB29_13
.LBB29_4:
str	r4, [sp]
ldr	r4, [sp, #12]
.LBB29_5:
ldr	r0, [r5]
cmp	r0, #0
beq	.LBB29_11
str	r4, [sp, #4]
mov	r4, r6
ldr	r1, [r5, #4]
ldr	r5, [r5, #8]
ldr	r6, [r5, #44]
adds	r1, #8
add	r0, sp, #8
movs	r3, #1
ldr	r2, .LCPI29_0
bl	_ZN4lisp4lisp3val7LispVal10expect_int17h19f09b58fab57fb9E
ldr	r0, [sp, #8]
cmp	r0, #0
bne	.LBB29_12
cmp	r6, #8
beq	.LBB29_9
ldr	r5, .LCPI29_1
b	.LBB29_10
.LBB29_9:
adds	r5, #8
.LBB29_10:
mov	r6, r4
ldr	r4, [sp, #4]
ldr	r0, [sp, #12]
subs	r4, r4, r0
b	.LBB29_5
.LBB29_11:
lsls	r0, r6, #16
ldr	r1, [r0]
movs	r2, #64
str	r2, [r1]
mov	r2, r1
adds	r2, #68
str	r2, [r0]
movs	r0, #0
adds	r2, r1, #4
ldr	r3, [sp]
stm	r3!, {r0, r2}
movs	r2, #4
str	r2, [r1, #48]
str	r4, [r1, #12]
str	r0, [r1, #8]
str	r6, [r1, #4]
b	.LBB29_13
.LBB29_12:
ldr	r1, [sp, #12]
ldr	r2, [sp, #16]
ldr	r3, [sp]
stm	r3!, {r0, r1, r2}
.LBB29_13:
add	sp, #20
pop	{r4, r5, r6, r7, pc}
.p2align	2
.LCPI29_0:
.long	.L__unnamed_21
.LCPI29_1:
.long	.L__unnamed_22
.Lfunc_end29:
.size	_ZN4core3ops8function6FnOnce9call_once17h83de7b40e1bf6466E, .Lfunc_end29-_ZN4core3ops8function6FnOnce9call_once17h83de7b40e1bf6466E
.cantunwind
.fnend

.section	.text._ZN4core3ops8function6FnOnce9call_once17h84af7dac81ec9f5dE,"ax",%progbits
.p2align	2
.type	_ZN4core3ops8function6FnOnce9call_once17h84af7dac81ec9f5dE,%function
.code	16
.thumb_func
_ZN4core3ops8function6FnOnce9call_once17h84af7dac81ec9f5dE:
.fnstart
.save	{r4, r6, r7, lr}
.pad	#16
push	{r0, r1, r2, r3, r4, r6, r7, lr}
.setfp	r7, sp, #24
add	r7, sp, #24
mov	r1, r2
mov	r4, r0
add	r0, sp, #4
ldr	r2, .LCPI30_0
movs	r3, #24
bl	_ZN4lisp4lisp3val8LispList10expect_car17h8f7187e674c3274aE
ldr	r0, [sp, #4]
cmp	r0, #0
beq	.LBB30_2
ldr	r1, [sp, #8]
ldr	r2, [sp, #12]
stm	r4!, {r0, r1, r2}
pop	{r0, r1, r2, r3, r4, r6, r7, pc}
.LBB30_2:
ldr	r0, [sp, #8]
bl	_ZN63_$LT$lisp..Prc$LT$T$GT$$u20$as$u20$lisp..parm..tty..Display$GT$5write17h751a30208dcd1920E
movs	r0, #1
lsls	r1, r0, #16
ldr	r2, [r1]
movs	r3, #64
str	r3, [r2]
mov	r3, r2
adds	r3, #68
str	r3, [r1]
movs	r1, #0
adds	r3, r2, #4
stm	r4!, {r1, r3}
movs	r3, #9
str	r3, [r2, #48]
str	r1, [r2, #8]
str	r0, [r2, #4]
pop	{r0, r1, r2, r3, r4, r6, r7, pc}
.p2align	2
.LCPI30_0:
.long	.L__unnamed_23
.Lfunc_end30:
.size	_ZN4core3ops8function6FnOnce9call_once17h84af7dac81ec9f5dE, .Lfunc_end30-_ZN4core3ops8function6FnOnce9call_once17h84af7dac81ec9f5dE
.cantunwind
.fnend

.section	.text._ZN4core3ops8function6FnOnce9call_once17h85578e6d478fcc88E,"ax",%progbits
.p2align	2
.type	_ZN4core3ops8function6FnOnce9call_once17h85578e6d478fcc88E,%function
.code	16
.thumb_func
_ZN4core3ops8function6FnOnce9call_once17h85578e6d478fcc88E:
.fnstart
.save	{r4, r5, r7, lr}
.pad	#16
push	{r0, r1, r2, r3, r4, r5, r7, lr}
.setfp	r7, sp, #24
add	r7, sp, #24
mov	r1, r2
mov	r4, r0
add	r0, sp, #4
ldr	r2, .LCPI31_0
movs	r3, #7
bl	_ZN4lisp4lisp3val8LispList10expect_car17h8f7187e674c3274aE
ldr	r0, [sp, #4]
cmp	r0, #0
beq	.LBB31_2
ldr	r1, [sp, #8]
ldr	r2, [sp, #12]
stm	r4!, {r0, r1, r2}
pop	{r0, r1, r2, r3, r4, r5, r7, pc}
.LBB31_2:
ldr	r0, [sp, #8]
ldr	r0, [r0]
ldr	r1, [r0, #44]
movs	r2, #1
lsls	r3, r2, #16
ldr	r0, [r3]
movs	r5, #64
str	r5, [r0]
mov	r5, r0
adds	r5, #68
str	r5, [r3]
movs	r3, #0
adds	r5, r0, #4
stm	r4!, {r3, r5}
movs	r4, #5
str	r4, [r0, #48]
str	r3, [r0, #8]
str	r2, [r0, #4]
subs	r1, r1, #3
rsbs	r2, r1, #0
adcs	r2, r1
strb	r2, [r0, #12]
pop	{r0, r1, r2, r3, r4, r5, r7, pc}
.p2align	2
.LCPI31_0:
.long	.L__unnamed_24
.Lfunc_end31:
.size	_ZN4core3ops8function6FnOnce9call_once17h85578e6d478fcc88E, .Lfunc_end31-_ZN4core3ops8function6FnOnce9call_once17h85578e6d478fcc88E
.cantunwind
.fnend

.section	.text._ZN4core3ops8function6FnOnce9call_once17h862e6e31a267cb3aE,"ax",%progbits
.p2align	2
.type	_ZN4core3ops8function6FnOnce9call_once17h862e6e31a267cb3aE,%function
.code	16
.thumb_func
_ZN4core3ops8function6FnOnce9call_once17h862e6e31a267cb3aE:
.fnstart
.save	{r4, r5, r6, r7, lr}
push	{r4, r5, r6, r7, lr}
.setfp	r7, sp, #12
add	r7, sp, #12
.pad	#28
sub	sp, #28
mov	r1, r2
mov	r4, r0
add	r0, sp, #16
bl	_ZN4lisp4lisp3val8LispList10get_n_iter17h1a6c59445730aa55E
ldr	r0, [sp, #16]
cmp	r0, #0
beq	.LBB32_3
str	r4, [sp, #4]
ldr	r5, [sp, #20]
ldr	r1, [r0]
adds	r1, #8
add	r0, sp, #16
ldr	r2, .LCPI32_0
movs	r4, #1
mov	r3, r4
bl	_ZN4lisp4lisp3val7LispVal10expect_int17h19f09b58fab57fb9E
ldr	r0, [sp, #16]
cmp	r0, #0
beq	.LBB32_4
ldr	r1, [sp, #20]
ldr	r2, [sp, #24]
ldr	r3, [sp, #4]
str	r0, [r3]
b	.LBB32_16
.LBB32_3:
ldr	r1, .LCPI32_0
movs	r2, #1
mov	r0, r4
bl	_ZN87_$LT$lisp..parm..heap..string..String$u20$as$u20$core..convert..From$LT$$RF$str$GT$$GT$4from17h25a10eb48256cf6dE
b	.LBB32_17
.LBB32_4:
ldr	r0, [sp, #20]
str	r4, [sp, #8]
.LBB32_5:
ldr	r1, [r5]
cmp	r1, #0
beq	.LBB32_14
str	r0, [sp, #12]
ldr	r1, [r5, #4]
ldr	r5, [r5, #8]
ldr	r6, [r5, #44]
adds	r1, #8
add	r0, sp, #16
movs	r4, #1
ldr	r2, .LCPI32_0
mov	r3, r4
bl	_ZN4lisp4lisp3val7LispVal10expect_int17h19f09b58fab57fb9E
cmp	r6, #8
beq	.LBB32_8
ldr	r5, .LCPI32_1
b	.LBB32_9
.LBB32_8:
adds	r5, #8
.LBB32_9:
ldr	r1, [sp, #20]
ldr	r6, [sp, #16]
cmp	r6, #0
ldr	r0, [sp, #12]
bne	.LBB32_15
cmp	r1, #0
beq	.LBB32_18
lsls	r2, r4, #31
cmp	r0, r2
bne	.LBB32_13
adds	r2, r1, #1
beq	.LBB32_19
.LBB32_13:
bl	__aeabi_idiv
ldr	r4, [sp, #8]
b	.LBB32_5
.LBB32_14:
lsls	r3, r4, #16
ldr	r1, [r3]
movs	r2, #64
str	r2, [r1]
mov	r2, r1
adds	r2, #68
str	r2, [r3]
movs	r5, #0
adds	r2, r1, #4
ldr	r3, [sp, #4]
str	r5, [r3]
str	r2, [r3, #4]
movs	r2, #4
str	r2, [r1, #48]
str	r0, [r1, #12]
str	r5, [r1, #8]
str	r4, [r1, #4]
b	.LBB32_17
.LBB32_15:
ldr	r2, [sp, #24]
ldr	r3, [sp, #4]
str	r6, [r3]
.LBB32_16:
str	r1, [r3, #4]
str	r2, [r3, #8]
.LBB32_17:
add	sp, #28
pop	{r4, r5, r6, r7, pc}
.LBB32_18:
ldr	r0, .LCPI32_4
movs	r1, #25
b	.LBB32_20
.LBB32_19:
ldr	r0, .LCPI32_2
movs	r1, #31
.LBB32_20:
ldr	r2, .LCPI32_3
bl	_ZN4core9panicking5panic17hbf7c4b9a7b4ce29dE
.inst.n	0xdefe
.p2align	2
.LCPI32_0:
.long	.L__unnamed_25
.LCPI32_1:
.long	.L__unnamed_22
.LCPI32_2:
.long	str.1
.LCPI32_3:
.long	.L__unnamed_26
.LCPI32_4:
.long	str.0
.Lfunc_end32:
.size	_ZN4core3ops8function6FnOnce9call_once17h862e6e31a267cb3aE, .Lfunc_end32-_ZN4core3ops8function6FnOnce9call_once17h862e6e31a267cb3aE
.cantunwind
.fnend

.section	.text._ZN4core3ops8function6FnOnce9call_once17h865f6d26c51a9660E,"ax",%progbits
.p2align	2
.type	_ZN4core3ops8function6FnOnce9call_once17h865f6d26c51a9660E,%function
.code	16
.thumb_func
_ZN4core3ops8function6FnOnce9call_once17h865f6d26c51a9660E:
.fnstart
.save	{r4, r5, r6, r7, lr}
push	{r4, r5, r6, r7, lr}
.setfp	r7, sp, #12
add	r7, sp, #12
.pad	#20
sub	sp, #20
mov	r5, r2
str	r0, [sp, #4]
movs	r4, #1
.LBB33_1:
ldr	r0, [r5]
cmp	r0, #0
beq	.LBB33_7
ldr	r1, [r5, #4]
ldr	r5, [r5, #8]
ldr	r6, [r5, #44]
adds	r1, #8
add	r0, sp, #8
movs	r3, #1
ldr	r2, .LCPI33_0
bl	_ZN4lisp4lisp3val7LispVal10expect_int17h19f09b58fab57fb9E
ldr	r0, [sp, #8]
cmp	r0, #0
bne	.LBB33_8
cmp	r6, #8
beq	.LBB33_5
ldr	r5, .LCPI33_1
b	.LBB33_6
.LBB33_5:
adds	r5, #8
.LBB33_6:
ldr	r0, [sp, #12]
muls	r4, r0, r4
b	.LBB33_1
.LBB33_7:
movs	r0, #1
lsls	r1, r0, #16
ldr	r2, [r1]
movs	r3, #64
str	r3, [r2]
mov	r3, r2
adds	r3, #68
str	r3, [r1]
movs	r1, #0
adds	r3, r2, #4
ldr	r5, [sp, #4]
stm	r5!, {r1, r3}
movs	r3, #4
str	r3, [r2, #48]
adds	r2, r2, #4
stm	r2!, {r0, r1, r4}
b	.LBB33_9
.LBB33_8:
ldr	r1, [sp, #12]
ldr	r2, [sp, #16]
ldr	r3, [sp, #4]
stm	r3!, {r0, r1, r2}
.LBB33_9:
add	sp, #20
pop	{r4, r5, r6, r7, pc}
.p2align	2
.LCPI33_0:
.long	.L__unnamed_27
.LCPI33_1:
.long	.L__unnamed_22
.Lfunc_end33:
.size	_ZN4core3ops8function6FnOnce9call_once17h865f6d26c51a9660E, .Lfunc_end33-_ZN4core3ops8function6FnOnce9call_once17h865f6d26c51a9660E
.cantunwind
.fnend

.section	.text._ZN4core3ops8function6FnOnce9call_once17h86ec2c8cbe0cd4d6E,"ax",%progbits
.p2align	2
.type	_ZN4core3ops8function6FnOnce9call_once17h86ec2c8cbe0cd4d6E,%function
.code	16
.thumb_func
_ZN4core3ops8function6FnOnce9call_once17h86ec2c8cbe0cd4d6E:
.fnstart
.save	{r4, r5, r6, r7, lr}
push	{r4, r5, r6, r7, lr}
.setfp	r7, sp, #12
add	r7, sp, #12
.pad	#44
sub	sp, #44
str	r1, [sp, #16]
mov	r5, r0
add	r0, sp, #32
mov	r1, r2
bl	_ZN4lisp4lisp3val8LispList5get_n17h4104062bc77cc0bcE
ldr	r0, [sp, #32]
cmp	r0, #0
beq	.LBB34_4
ldr	r4, [sp, #36]
ldr	r1, [r0]
adds	r1, #8
add	r0, sp, #32
ldr	r2, .LCPI34_0
movs	r3, #8
bl	_ZN4lisp4lisp3val7LispVal15expect_nonmacro17hcb2057f471f32edaE
ldr	r0, [sp, #32]
cmp	r0, #0
bne	.LBB34_3
ldr	r6, [sp, #36]
ldr	r1, [r4]
adds	r1, #8
add	r0, sp, #32
ldr	r2, .LCPI34_0
movs	r4, #8
mov	r3, r4
bl	_ZN4lisp4lisp3val7LispVal11expect_list17h294e3e58bbc02a2aE
ldr	r0, [sp, #32]
cmp	r0, #0
beq	.LBB34_6
.LBB34_3:
ldr	r1, [sp, #36]
ldr	r2, [sp, #40]
str	r0, [r5]
str	r1, [r5, #4]
str	r2, [r5, #8]
b	.LBB34_5
.LBB34_4:
ldr	r1, .LCPI34_0
movs	r2, #8
mov	r0, r5
bl	_ZN87_$LT$lisp..parm..heap..string..String$u20$as$u20$core..convert..From$LT$$RF$str$GT$$GT$4from17h25a10eb48256cf6dE
.LBB34_5:
add	sp, #44
pop	{r4, r5, r6, r7, pc}
.LBB34_6:
str	r4, [sp, #4]
str	r6, [sp, #8]
str	r5, [sp]
ldr	r4, [sp, #36]
movs	r0, #1
str	r0, [sp, #12]
lsls	r6, r0, #16
.LBB34_7:
ldr	r0, [r4]
cmp	r0, #0
beq	.LBB34_15
ldr	r0, [r4, #4]
ldr	r4, [r4, #8]
ldr	r5, [r4, #44]
ldr	r1, [r0]
adds	r1, r1, #1
str	r1, [r0]
ldr	r1, [r6]
movs	r2, #64
str	r2, [r1]
mov	r2, r1
adds	r2, #68
str	r2, [r6]
ldr	r2, [sp, #4]
str	r2, [r1, #48]
movs	r2, #0
str	r2, [r1, #12]
str	r2, [r1, #8]
ldr	r2, [sp, #12]
str	r2, [r1, #4]
adds	r1, r1, #4
str	r1, [sp, #40]
str	r0, [sp, #36]
str	r2, [sp, #32]
add	r0, sp, #20
add	r3, sp, #32
ldr	r1, [sp, #16]
ldr	r2, [sp, #8]
bl	_ZN4lisp4lisp4eval4call44_$LT$impl$u20$lisp..lisp..env..SchemeEnv$GT$18eval_nonmacro_call17h82f4437c0349fe67E
cmp	r5, #8
beq	.LBB34_10
ldr	r4, .LCPI34_1
b	.LBB34_11
.LBB34_10:
adds	r4, #8
.LBB34_11:
ldr	r0, [sp, #24]
ldr	r1, [sp, #20]
cmp	r1, #0
bne	.LBB34_16
ldr	r1, [r0]
subs	r1, r1, #1
beq	.LBB34_14
str	r1, [r0]
.LBB34_14:
add	r0, sp, #32
bl	_ZN4core3ptr46drop_in_place$LT$lisp..lisp..val..LispList$GT$17hd9db06d8e85b1709E
b	.LBB34_7
.LBB34_15:
ldr	r0, [r6]
movs	r1, #64
str	r1, [r0]
mov	r1, r0
adds	r1, #68
str	r1, [r6]
movs	r1, #0
adds	r2, r0, #4
ldr	r3, [sp]
stm	r3!, {r1, r2}
movs	r2, #9
str	r2, [r0, #48]
str	r1, [r0, #8]
ldr	r1, [sp, #12]
str	r1, [r0, #4]
b	.LBB34_5
.LBB34_16:
ldr	r2, [sp, #28]
ldr	r3, [sp]
str	r1, [r3]
str	r0, [r3, #4]
str	r2, [r3, #8]
add	r0, sp, #32
bl	_ZN4core3ptr46drop_in_place$LT$lisp..lisp..val..LispList$GT$17hd9db06d8e85b1709E
b	.LBB34_5
.p2align	2
.LCPI34_0:
.long	.L__unnamed_28
.LCPI34_1:
.long	.L__unnamed_22
.Lfunc_end34:
.size	_ZN4core3ops8function6FnOnce9call_once17h86ec2c8cbe0cd4d6E, .Lfunc_end34-_ZN4core3ops8function6FnOnce9call_once17h86ec2c8cbe0cd4d6E
.cantunwind
.fnend

.section	.text._ZN4core3ops8function6FnOnce9call_once17h8c51ad2d9bd032a9E,"ax",%progbits
.p2align	2
.type	_ZN4core3ops8function6FnOnce9call_once17h8c51ad2d9bd032a9E,%function
.code	16
.thumb_func
_ZN4core3ops8function6FnOnce9call_once17h8c51ad2d9bd032a9E:
.fnstart
.save	{r4, r5, r6, r7, lr}
push	{r4, r5, r6, r7, lr}
.setfp	r7, sp, #12
add	r7, sp, #12
.pad	#20
sub	sp, #20
mov	r1, r2
mov	r4, r0
add	r0, sp, #8
bl	_ZN4lisp4lisp3val8LispList5get_n17h4104062bc77cc0bcE
ldr	r5, [sp, #8]
cmp	r5, #0
beq	.LBB35_6
str	r4, [sp, #4]
ldr	r4, [sp, #12]
.LBB35_2:
mov	r6, r4
ldr	r1, [r4]
adds	r1, #8
add	r0, sp, #8
movs	r3, #6
ldr	r2, .LCPI35_0
bl	_ZN4lisp4lisp3val7LispVal11expect_list17h294e3e58bbc02a2aE
ldr	r4, [sp, #12]
ldr	r0, [sp, #8]
cmp	r0, #0
bne	.LBB35_7
ldr	r0, [r4]
cmp	r0, #1
bne	.LBB35_8
adds	r1, r4, #4
mov	r0, r5
bl	_ZN59_$LT$lisp..Prc$LT$T$GT$$u20$as$u20$core..cmp..PartialEq$GT$2eq17hd7c8c14caefa801fE
adds	r4, #8
cmp	r0, #0
beq	.LBB35_2
movs	r0, #0
ldr	r1, [r6]
ldr	r2, [sp, #4]
stm	r2!, {r0, r1}
ldr	r0, [r1]
adds	r0, r0, #1
str	r0, [r1]
b	.LBB35_9
.LBB35_6:
ldr	r1, .LCPI35_0
movs	r2, #6
mov	r0, r4
bl	_ZN87_$LT$lisp..parm..heap..string..String$u20$as$u20$core..convert..From$LT$$RF$str$GT$$GT$4from17h25a10eb48256cf6dE
b	.LBB35_9
.LBB35_7:
ldr	r1, [sp, #16]
ldr	r2, [sp, #4]
stm	r2!, {r0, r4}
str	r1, [r2]
b	.LBB35_9
.LBB35_8:
movs	r0, #1
lsls	r1, r0, #16
ldr	r2, [r1]
movs	r3, #64
str	r3, [r2]
mov	r3, r2
adds	r3, #68
str	r3, [r1]
movs	r1, #0
adds	r3, r2, #4
ldr	r4, [sp, #4]
stm	r4!, {r1, r3}
movs	r3, #5
str	r3, [r2, #48]
strb	r1, [r2, #12]
str	r1, [r2, #8]
str	r0, [r2, #4]
.LBB35_9:
add	sp, #20
pop	{r4, r5, r6, r7, pc}
.p2align	2
.LCPI35_0:
.long	.L__unnamed_29
.Lfunc_end35:
.size	_ZN4core3ops8function6FnOnce9call_once17h8c51ad2d9bd032a9E, .Lfunc_end35-_ZN4core3ops8function6FnOnce9call_once17h8c51ad2d9bd032a9E
.cantunwind
.fnend

.section	.text._ZN4core3ops8function6FnOnce9call_once17h94382fe0ef856d66E,"ax",%progbits
.p2align	2
.type	_ZN4core3ops8function6FnOnce9call_once17h94382fe0ef856d66E,%function
.code	16
.thumb_func
_ZN4core3ops8function6FnOnce9call_once17h94382fe0ef856d66E:
.fnstart
.save	{r4, r5, r6, r7, lr}
.pad	#12
push	{r1, r2, r3, r4, r5, r6, r7, lr}
.setfp	r7, sp, #24
add	r7, sp, #24
mov	r1, r2
mov	r4, r0
mov	r0, sp
ldr	r2, .LCPI36_0
movs	r5, #5
mov	r3, r5
bl	_ZN4lisp4lisp3val8LispList10expect_car17h8f7187e674c3274aE
ldr	r0, [sp]
cmp	r0, #0
beq	.LBB36_2
ldr	r1, [sp, #4]
ldr	r2, [sp, #8]
stm	r4!, {r0, r1, r2}
pop	{r1, r2, r3, r4, r5, r6, r7, pc}
.LBB36_2:
ldr	r0, [sp, #4]
ldr	r0, [r0]
ldr	r0, [r0, #44]
movs	r2, #1
lsls	r3, r2, #16
ldr	r1, [r3]
movs	r6, #64
str	r6, [r1]
mov	r6, r1
adds	r6, #68
str	r6, [r3]
movs	r3, #0
adds	r6, r1, #4
stm	r4!, {r3, r6}
str	r5, [r1, #48]
str	r3, [r1, #8]
str	r2, [r1, #4]
subs	r0, #8
rsbs	r2, r0, #0
adcs	r2, r0
strb	r2, [r1, #12]
pop	{r1, r2, r3, r4, r5, r6, r7, pc}
.p2align	2
.LCPI36_0:
.long	.L__unnamed_19
.Lfunc_end36:
.size	_ZN4core3ops8function6FnOnce9call_once17h94382fe0ef856d66E, .Lfunc_end36-_ZN4core3ops8function6FnOnce9call_once17h94382fe0ef856d66E
.cantunwind
.fnend

.section	.text._ZN4core3ops8function6FnOnce9call_once17h9774d049f9db4a4cE,"ax",%progbits
.p2align	2
.type	_ZN4core3ops8function6FnOnce9call_once17h9774d049f9db4a4cE,%function
.code	16
.thumb_func
_ZN4core3ops8function6FnOnce9call_once17h9774d049f9db4a4cE:
.fnstart
.save	{r4, r6, r7, lr}
push	{r4, r6, r7, lr}
.setfp	r7, sp, #8
add	r7, sp, #8
.pad	#48
sub	sp, #48
mov	r4, r0
mov	r0, r2
bl	_ZN4lisp4lisp3val8LispList5get_n17h3a20a97af4f6f221E
cmp	r0, #0
beq	.LBB37_3
ldr	r1, [r0]
adds	r1, #8
add	r0, sp, #36
ldr	r2, .LCPI37_0
movs	r3, #6
bl	_ZN4lisp4lisp3val7LispVal11expect_list17h294e3e58bbc02a2aE
ldr	r0, [sp, #36]
cmp	r0, #0
beq	.LBB37_4
ldr	r1, [sp, #40]
ldr	r2, [sp, #44]
b	.LBB37_10
.LBB37_3:
ldr	r1, .LCPI37_0
movs	r2, #6
mov	r0, r4
bl	_ZN87_$LT$lisp..parm..heap..string..String$u20$as$u20$core..convert..From$LT$$RF$str$GT$$GT$4from17h25a10eb48256cf6dE
b	.LBB37_11
.LBB37_4:
ldr	r1, [sp, #40]
add	r0, sp, #24
ldr	r2, .LCPI37_0
movs	r3, #6
bl	_ZN4lisp4lisp3val8LispList15expect_cdr_list17h966171acdec654f3E
ldr	r0, [sp, #24]
cmp	r0, #0
beq	.LBB37_6
ldr	r1, [sp, #28]
ldr	r2, [sp, #32]
b	.LBB37_10
.LBB37_6:
ldr	r1, [sp, #28]
add	r0, sp, #12
ldr	r2, .LCPI37_0
movs	r3, #6
bl	_ZN4lisp4lisp3val8LispList15expect_cdr_list17h966171acdec654f3E
ldr	r0, [sp, #12]
cmp	r0, #0
beq	.LBB37_8
ldr	r1, [sp, #16]
ldr	r2, [sp, #20]
b	.LBB37_10
.LBB37_8:
ldr	r1, [sp, #16]
mov	r0, sp
ldr	r2, .LCPI37_0
movs	r3, #6
bl	_ZN4lisp4lisp3val8LispList11expect_cadr17hc60511602eada018E
ldr	r0, [sp]
cmp	r0, #0
beq	.LBB37_12
ldr	r1, [sp, #4]
ldr	r2, [sp, #8]
.LBB37_10:
str	r0, [r4]
str	r1, [r4, #4]
str	r2, [r4, #8]
.LBB37_11:
add	sp, #48
pop	{r4, r6, r7, pc}
.LBB37_12:
ldr	r0, [sp, #4]
movs	r1, #0
ldr	r0, [r0]
str	r1, [r4]
str	r0, [r4, #4]
ldr	r1, [r0]
adds	r1, r1, #1
str	r1, [r0]
b	.LBB37_11
.p2align	2
.LCPI37_0:
.long	.L__unnamed_30
.Lfunc_end37:
.size	_ZN4core3ops8function6FnOnce9call_once17h9774d049f9db4a4cE, .Lfunc_end37-_ZN4core3ops8function6FnOnce9call_once17h9774d049f9db4a4cE
.cantunwind
.fnend

.section	.text._ZN4core3ops8function6FnOnce9call_once17h97906424d68f7b6bE,"ax",%progbits
.p2align	1
.type	_ZN4core3ops8function6FnOnce9call_once17h97906424d68f7b6bE,%function
.code	16
.thumb_func
_ZN4core3ops8function6FnOnce9call_once17h97906424d68f7b6bE:
.fnstart
.save	{r4, r5, r6, r7, lr}
push	{r4, r5, r6, r7, lr}
.setfp	r7, sp, #12
add	r7, sp, #12
.pad	#108
sub	sp, #108
str	r0, [sp]
movs	r2, #0
str	r2, [sp, #52]
str	r2, [sp, #48]
str	r2, [sp, #44]
movs	r0, #4
str	r0, [sp, #40]
str	r2, [sp, #36]
str	r2, [sp, #32]
movs	r0, #8
str	r0, [sp, #28]
str	r2, [sp, #20]
mvns	r0, r2
str	r0, [sp, #56]
ldr	r0, [r1]
ldr	r1, [r0, #16]
movs	r2, #24
str	r2, [sp, #4]
muls	r1, r2, r1
ldr	r6, [r0, #8]
adds	r0, r6, r1
str	r0, [sp, #8]
movs	r0, #1
str	r0, [sp, #16]
lsls	r0, r0, #16
str	r0, [sp, #12]
.LBB38_1:
ldr	r2, [sp, #8]
subs	r0, r6, r2
subs	r1, r0, #1
sbcs	r0, r1
cmp	r6, r2
beq	.LBB38_6
cmp	r6, #0
beq	.LBB38_6
ldr	r1, [sp, #4]
muls	r0, r1, r0
adds	r0, r6, r0
str	r0, [sp, #24]
mov	r1, r6
adds	r1, #8
add	r5, sp, #96
mov	r0, r5
bl	_ZN71_$LT$lisp..parm..heap..string..String$u20$as$u20$core..clone..Clone$GT$5clone17hcfb3fae59d8e5176E
add	r1, sp, #60
mov	r0, r1
ldm	r5!, {r2, r3, r4}
stm	r0!, {r2, r3, r4}
ldr	r2, [sp, #12]
ldr	r5, [r2]
movs	r0, #64
str	r0, [r5]
mov	r0, r5
adds	r0, #68
str	r0, [r2]
ldr	r0, [sp, #20]
str	r0, [r5, #8]
ldr	r0, [sp, #16]
str	r0, [r5, #4]
mov	r0, r5
adds	r0, #12
movs	r2, #36
bl	__aeabi_memcpy
movs	r0, #6
str	r0, [r5, #48]
ldr	r2, [r6, #20]
ldr	r0, [r2]
adds	r0, r0, #1
str	r0, [r2]
adds	r1, r5, #4
add	r0, sp, #28
bl	_ZN4lisp4parm4heap6budmap25BudMap$LT$Key$C$Value$GT$6insert17hc294ca10f16dea5aE
ldr	r2, [sp, #24]
cmp	r0, #0
mov	r6, r2
beq	.LBB38_1
ldr	r0, [r1]
subs	r0, r0, #1
mov	r6, r2
beq	.LBB38_1
str	r0, [r1]
mov	r6, r2
b	.LBB38_1
.LBB38_6:
ldr	r1, [sp, #12]
ldr	r4, [r1]
movs	r0, #64
str	r0, [r4]
mov	r0, r4
adds	r0, #68
str	r0, [r1]
ldr	r5, [sp, #20]
str	r5, [r4, #8]
ldr	r0, [sp, #16]
str	r0, [r4, #4]
mov	r0, r4
adds	r0, #12
add	r1, sp, #28
movs	r2, #32
bl	__aeabi_memcpy
movs	r0, #44
strb	r5, [r4, r0]
movs	r0, #11
str	r0, [r4, #48]
adds	r0, r4, #4
ldr	r1, [sp]
str	r5, [r1]
str	r0, [r1, #4]
add	sp, #108
pop	{r4, r5, r6, r7, pc}
.Lfunc_end38:
.size	_ZN4core3ops8function6FnOnce9call_once17h97906424d68f7b6bE, .Lfunc_end38-_ZN4core3ops8function6FnOnce9call_once17h97906424d68f7b6bE
.cantunwind
.fnend

.section	.text._ZN4core3ops8function6FnOnce9call_once17ha0015b3f8c6ff363E,"ax",%progbits
.p2align	2
.type	_ZN4core3ops8function6FnOnce9call_once17ha0015b3f8c6ff363E,%function
.code	16
.thumb_func
_ZN4core3ops8function6FnOnce9call_once17ha0015b3f8c6ff363E:
.fnstart
.save	{r4, r5, r7, lr}
.pad	#16
push	{r0, r1, r2, r3, r4, r5, r7, lr}
.setfp	r7, sp, #24
add	r7, sp, #24
mov	r4, r0
ldr	r0, [r2]
cmp	r0, #0
beq	.LBB39_3
ldr	r1, [r2, #4]
adds	r1, #8
add	r0, sp, #4
ldr	r2, .LCPI39_0
movs	r3, #6
bl	_ZN4lisp4lisp3val7LispVal11expect_list17h294e3e58bbc02a2aE
ldr	r0, [sp, #4]
cmp	r0, #0
beq	.LBB39_4
ldr	r1, [sp, #8]
ldr	r2, [sp, #12]
stm	r4!, {r0, r1, r2}
pop	{r0, r1, r2, r3, r4, r5, r7, pc}
.LBB39_3:
ldr	r1, .LCPI39_0
movs	r2, #6
mov	r0, r4
bl	_ZN87_$LT$lisp..parm..heap..string..String$u20$as$u20$core..convert..From$LT$$RF$str$GT$$GT$4from17h25a10eb48256cf6dE
pop	{r0, r1, r2, r3, r4, r5, r7, pc}
.LBB39_4:
ldr	r1, [sp, #8]
movs	r0, #0
ldr	r2, .LCPI39_1
.LBB39_5:
ldr	r3, [r1]
cmp	r3, #0
beq	.LBB39_10
ldr	r1, [r1, #8]
ldr	r3, [r1, #44]
cmp	r3, #8
beq	.LBB39_8
mov	r1, r2
b	.LBB39_9
.LBB39_8:
adds	r1, #8
.LBB39_9:
adds	r0, r0, #1
b	.LBB39_5
.LBB39_10:
movs	r1, #1
lsls	r2, r1, #16
ldr	r3, [r2]
movs	r5, #64
str	r5, [r3]
mov	r5, r3
adds	r5, #68
str	r5, [r2]
movs	r2, #0
adds	r5, r3, #4
stm	r4!, {r2, r5}
movs	r4, #4
str	r4, [r3, #48]
str	r0, [r3, #12]
str	r2, [r3, #8]
str	r1, [r3, #4]
pop	{r0, r1, r2, r3, r4, r5, r7, pc}
.p2align	2
.LCPI39_0:
.long	.L__unnamed_31
.LCPI39_1:
.long	.L__unnamed_22
.Lfunc_end39:
.size	_ZN4core3ops8function6FnOnce9call_once17ha0015b3f8c6ff363E, .Lfunc_end39-_ZN4core3ops8function6FnOnce9call_once17ha0015b3f8c6ff363E
.cantunwind
.fnend

.section	.text._ZN4core3ops8function6FnOnce9call_once17ha8bc68491d23c514E,"ax",%progbits
.p2align	2
.type	_ZN4core3ops8function6FnOnce9call_once17ha8bc68491d23c514E,%function
.code	16
.thumb_func
_ZN4core3ops8function6FnOnce9call_once17ha8bc68491d23c514E:
.fnstart
.save	{r4, r5, r6, r7, lr}
push	{r4, r5, r6, r7, lr}
.setfp	r7, sp, #12
add	r7, sp, #12
.pad	#20
sub	sp, #20
str	r0, [sp, #4]
movs	r0, #0
str	r0, [sp, #12]
movs	r1, #4
str	r1, [sp, #8]
.LBB40_1:
str	r0, [sp, #16]
ldr	r1, [r2]
cmp	r1, #0
beq	.LBB40_15
ldr	r6, [r2, #8]
ldr	r1, [r6, #44]
cmp	r1, #8
beq	.LBB40_4
ldr	r6, .LCPI40_0
b	.LBB40_5
.LBB40_4:
adds	r6, #8
.LBB40_5:
ldr	r1, [r2, #4]
ldr	r3, [r1, #44]
cmp	r3, #6
bne	.LBB40_11
ldr	r5, [r1, #16]
adds	r2, r5, r0
ldr	r4, [r1, #8]
ldr	r1, [sp, #12]
cmp	r2, r1
bls	.LBB40_8
add	r0, sp, #8
mov	r1, r5
bl	_ZN4lisp4parm4heap3vec12Vec$LT$T$GT$14grow_amortized17h354e281ba8fc9017E
ldr	r0, [sp, #16]
.LBB40_8:
lsls	r1, r0, #2
ldr	r2, [sp, #8]
adds	r1, r2, r1
lsls	r2, r5, #2
.LBB40_9:
cmp	r2, #0
beq	.LBB40_12
adds	r0, r0, #1
str	r0, [sp, #16]
ldm	r4!, {r3}
stm	r1!, {r3}
subs	r2, r2, #4
b	.LBB40_9
.LBB40_11:
adds	r0, r2, #4
add	r1, sp, #8
bl	_ZN63_$LT$lisp..Prc$LT$T$GT$$u20$as$u20$lisp..parm..tty..Display$GT$5write17haad684c6069ddddaE
ldr	r0, [sp, #16]
.LBB40_12:
ldr	r1, [sp, #12]
cmp	r0, r1
bne	.LBB40_14
add	r0, sp, #8
movs	r1, #1
bl	_ZN4lisp4parm4heap3vec12Vec$LT$T$GT$14grow_amortized17h354e281ba8fc9017E
ldr	r0, [sp, #16]
.LBB40_14:
lsls	r1, r0, #2
ldr	r2, [sp, #8]
movs	r3, #32
str	r3, [r2, r1]
adds	r0, r0, #1
mov	r2, r6
b	.LBB40_1
.LBB40_15:
add	r0, sp, #8
ldr	r4, [sp, #4]
ldm	r0!, {r1, r2, r3}
stm	r4!, {r1, r2, r3}
add	sp, #20
pop	{r4, r5, r6, r7, pc}
.p2align	2
.LCPI40_0:
.long	.L__unnamed_22
.Lfunc_end40:
.size	_ZN4core3ops8function6FnOnce9call_once17ha8bc68491d23c514E, .Lfunc_end40-_ZN4core3ops8function6FnOnce9call_once17ha8bc68491d23c514E
.cantunwind
.fnend

.section	.text._ZN4core3ops8function6FnOnce9call_once17ha96189e617ad68e5E,"ax",%progbits
.p2align	2
.type	_ZN4core3ops8function6FnOnce9call_once17ha96189e617ad68e5E,%function
.code	16
.thumb_func
_ZN4core3ops8function6FnOnce9call_once17ha96189e617ad68e5E:
.fnstart
.save	{r4, r5, r6, r7, lr}
push	{r4, r5, r6, r7, lr}
.setfp	r7, sp, #12
add	r7, sp, #12
.pad	#68
sub	sp, #68
mov	r6, r2
mov	r5, r1
mov	r4, r0
add	r0, sp, #56
ldr	r2, .LCPI41_0
movs	r3, #3
mov	r1, r6
bl	_ZN4lisp4lisp3val8LispList10expect_car17h8f7187e674c3274aE
ldr	r0, [sp, #56]
cmp	r0, #0
beq	.LBB41_2
.LBB41_1:
ldr	r1, [sp, #60]
ldr	r2, [sp, #64]
b	.LBB41_4
.LBB41_2:
ldr	r0, [sp, #60]
ldr	r1, [r0]
adds	r1, #8
add	r0, sp, #44
ldr	r2, .LCPI41_0
movs	r3, #3
bl	_ZN4lisp4lisp3val7LispVal15expect_nonmacro17hcb2057f471f32edaE
ldr	r0, [sp, #44]
cmp	r0, #0
beq	.LBB41_6
.LBB41_3:
ldr	r1, [sp, #48]
ldr	r2, [sp, #52]
.LBB41_4:
str	r0, [r4]
str	r1, [r4, #4]
str	r2, [r4, #8]
.LBB41_5:
add	sp, #68
pop	{r4, r5, r6, r7, pc}
.LBB41_6:
ldr	r0, [sp, #48]
str	r0, [sp, #24]
add	r0, sp, #56
ldr	r2, .LCPI41_0
movs	r3, #3
mov	r1, r6
bl	_ZN4lisp4lisp3val8LispList11expect_cadr17hc60511602eada018E
ldr	r0, [sp, #56]
cmp	r0, #0
bne	.LBB41_1
ldr	r0, [sp, #60]
ldr	r1, [r0]
adds	r1, #8
add	r0, sp, #44
ldr	r2, .LCPI41_0
movs	r6, #3
mov	r3, r6
bl	_ZN4lisp4lisp3val7LispVal11expect_list17h294e3e58bbc02a2aE
ldr	r0, [sp, #44]
cmp	r0, #0
bne	.LBB41_3
mov	r3, r6
ldr	r6, [sp, #48]
movs	r0, #1
str	r0, [sp, #12]
lsls	r2, r0, #16
ldr	r0, [r2]
movs	r1, #64
str	r1, [sp, #4]
str	r1, [r0]
mov	r1, r0
adds	r1, #68
str	r2, [sp, #8]
str	r1, [r2]
movs	r1, #8
str	r1, [sp]
str	r1, [r0, #48]
movs	r1, #0
str	r1, [r0, #12]
str	r1, [sp, #20]
str	r1, [r0, #8]
str	r3, [r0, #4]
adds	r0, r0, #4
str	r0, [sp, #40]
str	r0, [sp, #36]
str	r0, [sp, #32]
str	r4, [sp, #16]
.LBB41_9:
ldr	r0, [r6]
cmp	r0, #0
beq	.LBB41_14
ldr	r0, [r6, #4]
ldr	r6, [r6, #8]
mov	r4, r5
ldr	r1, [r6, #44]
str	r1, [sp, #28]
ldr	r1, [r0]
adds	r1, r1, #1
str	r1, [r0]
ldr	r3, [sp, #8]
ldr	r1, [r3]
ldr	r2, [sp, #4]
str	r2, [r1]
mov	r2, r1
adds	r2, #68
str	r2, [r3]
ldr	r2, [sp]
str	r2, [r1, #48]
ldr	r2, [sp, #20]
str	r2, [r1, #12]
str	r2, [r1, #8]
ldr	r2, [sp, #12]
str	r2, [r1, #4]
adds	r1, r1, #4
str	r1, [sp, #64]
str	r0, [sp, #60]
str	r2, [sp, #56]
add	r0, sp, #44
add	r3, sp, #56
mov	r1, r5
ldr	r2, [sp, #24]
bl	_ZN4lisp4lisp4eval4call44_$LT$impl$u20$lisp..lisp..env..SchemeEnv$GT$18eval_nonmacro_call17h82f4437c0349fe67E
ldr	r0, [sp, #44]
cmp	r0, #0
bne	.LBB41_15
ldr	r1, [sp, #48]
add	r0, sp, #32
bl	_ZN4lisp4lisp3val15LispListBuilder4push17h6b8263f332e9e854E
add	r0, sp, #56
bl	_ZN4core3ptr46drop_in_place$LT$lisp..lisp..val..LispList$GT$17hd9db06d8e85b1709E
ldr	r0, [sp, #28]
cmp	r0, #8
ldr	r4, [sp, #16]
beq	.LBB41_13
ldr	r6, .LCPI41_1
b	.LBB41_9
.LBB41_13:
adds	r6, #8
b	.LBB41_9
.LBB41_14:
add	r1, sp, #32
add	r0, sp, #56
mov	r2, r0
ldm	r1!, {r3, r5, r6}
stm	r2!, {r3, r5, r6}
bl	_ZN4lisp4lisp3val15LispListBuilder6finish17hb1784b4a5d2bfc82E
ldr	r1, [sp, #20]
str	r1, [r4]
str	r0, [r4, #4]
b	.LBB41_5
.LBB41_15:
ldr	r1, [sp, #48]
ldr	r2, [sp, #52]
ldr	r3, [sp, #16]
stm	r3!, {r0, r1, r2}
add	r0, sp, #56
bl	_ZN4core3ptr46drop_in_place$LT$lisp..lisp..val..LispList$GT$17hd9db06d8e85b1709E
add	r0, sp, #32
bl	_ZN4core3ptr53drop_in_place$LT$lisp..lisp..val..LispListBuilder$GT$17h93e030bd379a099cE
b	.LBB41_5
.p2align	2
.LCPI41_0:
.long	.L__unnamed_32
.LCPI41_1:
.long	.L__unnamed_22
.Lfunc_end41:
.size	_ZN4core3ops8function6FnOnce9call_once17ha96189e617ad68e5E, .Lfunc_end41-_ZN4core3ops8function6FnOnce9call_once17ha96189e617ad68e5E
.cantunwind
.fnend

.section	.text._ZN4core3ops8function6FnOnce9call_once17habc34f73216e7969E,"ax",%progbits
.p2align	2
.type	_ZN4core3ops8function6FnOnce9call_once17habc34f73216e7969E,%function
.code	16
.thumb_func
_ZN4core3ops8function6FnOnce9call_once17habc34f73216e7969E:
.fnstart
.save	{r4, r5, r6, r7, lr}
push	{r4, r5, r6, r7, lr}
.setfp	r7, sp, #12
add	r7, sp, #12
.pad	#116
sub	sp, #116
str	r0, [sp, #16]
movs	r4, #0
str	r4, [sp, #28]
str	r4, [sp, #24]
movs	r6, #4
str	r6, [sp, #20]
add	r0, sp, #20
bl	_ZN4lisp4parm3tty9read_line17haaf279a1b9a966dbE
ldr	r5, [sp, #20]
ldr	r1, [sp, #28]
mov	r0, r5
str	r1, [sp, #8]
bl	_ZN4lisp14check_balanced17h6da59458b795d5baE
movs	r1, #17
lsls	r1, r1, #16
cmp	r0, #0
str	r1, [sp, #12]
beq	.LBB42_3
movs	r0, #0
str	r0, [sp, #4]
str	r0, [sp, #104]
str	r5, [sp, #96]
str	r5, [sp, #88]
adds	r0, r1, #1
str	r0, [sp, #112]
ldr	r0, [sp, #8]
str	r0, [sp, #92]
lsls	r0, r0, #2
adds	r0, r5, r0
str	r0, [sp, #100]
add	r0, sp, #32
add	r1, sp, #88
bl	_ZN4lisp4lisp5parse12SchemeParser10read_whole17hf6c80e6e03b7cf78E
ldr	r0, [sp, #68]
cmp	r0, #13
beq	.LBB42_4
movs	r0, #1
lsls	r1, r0, #16
ldr	r4, [r1]
movs	r2, #64
str	r2, [r4]
mov	r2, r4
adds	r2, #68
str	r2, [r1]
ldr	r5, [sp, #4]
str	r5, [r4, #8]
str	r0, [r4, #4]
mov	r0, r4
adds	r0, #12
add	r1, sp, #32
movs	r2, #56
bl	__aeabi_memcpy
adds	r0, r4, #4
ldr	r1, [sp, #16]
str	r5, [r1]
str	r0, [r1, #4]
b	.LBB42_95
.LBB42_3:
movs	r0, #13
str	r0, [sp, #68]
str	r1, [sp, #32]
.LBB42_4:
ldr	r0, [sp, #36]
str	r0, [sp, #4]
ldr	r0, [sp, #32]
str	r0, [sp, #8]
str	r4, [sp, #96]
str	r4, [sp, #92]
str	r6, [sp, #88]
ldr	r5, .LCPI42_0
mov	r0, r4
.LBB42_5:
cmp	r4, #6
beq	.LBB42_9
ldr	r1, [sp, #92]
cmp	r0, r1
bne	.LBB42_8
add	r0, sp, #88
movs	r1, #1
bl	_ZN4lisp4parm4heap3vec12Vec$LT$T$GT$14grow_amortized17h354e281ba8fc9017E
ldr	r6, [sp, #88]
ldr	r0, [sp, #96]
.LBB42_8:
ldrb	r1, [r5, r4]
lsls	r2, r0, #2
str	r1, [r6, r2]
adds	r0, r0, #1
str	r0, [sp, #96]
adds	r4, r4, #1
b	.LBB42_5
.LBB42_9:
ldr	r3, [sp, #12]
subs	r1, r3, #1
ldr	r6, [sp, #8]
cmp	r6, r1
bhi	.LBB42_11
movs	r1, #1
b	.LBB42_12
.LBB42_11:
ldr	r1, .LCPI42_1
adds	r1, r6, r1
.LBB42_12:
.p2align	2
add	r1, pc
ldrb	r1, [r1, #4]
lsls	r1, r1, #1
.LCPI42_13:
add	pc, r1
.p2align	2
.LJTI42_0:
.byte	(.LBB42_14-(.LCPI42_13+4))/2
.byte	(.LBB42_19-(.LCPI42_13+4))/2
.byte	(.LBB42_28-(.LCPI42_13+4))/2
.byte	(.LBB42_33-(.LCPI42_13+4))/2
.byte	(.LBB42_38-(.LCPI42_13+4))/2
.byte	(.LBB42_51-(.LCPI42_13+4))/2
.byte	(.LBB42_56-(.LCPI42_13+4))/2
.p2align	1
.LBB42_14:
movs	r4, #0
ldr	r5, .LCPI42_12
.LBB42_15:
cmp	r4, #28
bne	.LBB42_16
b	.LBB42_94
.LBB42_16:
ldr	r1, [sp, #92]
cmp	r0, r1
bne	.LBB42_18
add	r0, sp, #88
movs	r1, #1
bl	_ZN4lisp4parm4heap3vec12Vec$LT$T$GT$14grow_amortized17h354e281ba8fc9017E
ldr	r0, [sp, #96]
.LBB42_18:
ldrb	r1, [r5, r4]
lsls	r2, r0, #2
ldr	r3, [sp, #88]
str	r1, [r3, r2]
adds	r0, r0, #1
str	r0, [sp, #96]
adds	r4, r4, #1
b	.LBB42_15
.LBB42_19:
ldr	r1, [sp, #4]
movs	r4, #0
ldr	r5, .LCPI42_9
cmp	r1, r3
bne	.LBB42_24
.LBB42_20:
cmp	r4, #10
bne	.LBB42_21
b	.LBB42_61
.LBB42_21:
ldr	r1, [sp, #92]
cmp	r0, r1
bne	.LBB42_23
add	r0, sp, #88
movs	r1, #1
bl	_ZN4lisp4parm4heap3vec12Vec$LT$T$GT$14grow_amortized17h354e281ba8fc9017E
ldr	r0, [sp, #96]
.LBB42_23:
ldrb	r1, [r5, r4]
lsls	r2, r0, #2
ldr	r3, [sp, #88]
str	r1, [r3, r2]
adds	r0, r0, #1
str	r0, [sp, #96]
adds	r4, r4, #1
b	.LBB42_20
.LBB42_24:
cmp	r4, #10
bne	.LBB42_25
b	.LBB42_68
.LBB42_25:
ldr	r1, [sp, #92]
cmp	r0, r1
bne	.LBB42_27
add	r0, sp, #88
movs	r1, #1
bl	_ZN4lisp4parm4heap3vec12Vec$LT$T$GT$14grow_amortized17h354e281ba8fc9017E
ldr	r0, [sp, #96]
.LBB42_27:
ldrb	r1, [r5, r4]
lsls	r2, r0, #2
ldr	r3, [sp, #88]
str	r1, [r3, r2]
adds	r0, r0, #1
str	r0, [sp, #96]
adds	r4, r4, #1
b	.LBB42_24
.LBB42_28:
movs	r4, #0
ldr	r5, .LCPI42_8
.LBB42_29:
cmp	r4, #24
beq	.LBB42_44
ldr	r1, [sp, #92]
cmp	r0, r1
bne	.LBB42_32
add	r0, sp, #88
movs	r1, #1
bl	_ZN4lisp4parm4heap3vec12Vec$LT$T$GT$14grow_amortized17h354e281ba8fc9017E
ldr	r0, [sp, #96]
.LBB42_32:
ldrb	r1, [r5, r4]
lsls	r2, r0, #2
ldr	r3, [sp, #88]
str	r1, [r3, r2]
adds	r0, r0, #1
str	r0, [sp, #96]
adds	r4, r4, #1
b	.LBB42_29
.LBB42_33:
movs	r4, #0
ldr	r5, .LCPI42_7
.LBB42_34:
cmp	r4, #15
bne	.LBB42_35
b	.LBB42_94
.LBB42_35:
ldr	r1, [sp, #92]
cmp	r0, r1
bne	.LBB42_37
add	r0, sp, #88
movs	r1, #1
bl	_ZN4lisp4parm4heap3vec12Vec$LT$T$GT$14grow_amortized17h354e281ba8fc9017E
ldr	r0, [sp, #96]
.LBB42_37:
ldrb	r1, [r5, r4]
lsls	r2, r0, #2
ldr	r3, [sp, #88]
str	r1, [r3, r2]
adds	r0, r0, #1
str	r0, [sp, #96]
adds	r4, r4, #1
b	.LBB42_34
.LBB42_38:
ldr	r1, [sp, #4]
movs	r4, #0
cmp	r1, r3
beq	.LBB42_39
b	.LBB42_75
.LBB42_39:
ldr	r5, .LCPI42_6
.LBB42_40:
cmp	r4, #29
bne	.LBB42_41
b	.LBB42_94
.LBB42_41:
ldr	r1, [sp, #92]
cmp	r0, r1
bne	.LBB42_43
add	r0, sp, #88
movs	r1, #1
bl	_ZN4lisp4parm4heap3vec12Vec$LT$T$GT$14grow_amortized17h354e281ba8fc9017E
ldr	r0, [sp, #96]
.LBB42_43:
ldrb	r1, [r5, r4]
lsls	r2, r0, #2
ldr	r3, [sp, #88]
str	r1, [r3, r2]
adds	r0, r0, #1
str	r0, [sp, #96]
adds	r4, r4, #1
b	.LBB42_40
.LBB42_44:
ldr	r1, [sp, #92]
cmp	r0, r1
bne	.LBB42_46
add	r0, sp, #88
movs	r1, #1
bl	_ZN4lisp4parm4heap3vec12Vec$LT$T$GT$14grow_amortized17h354e281ba8fc9017E
ldr	r0, [sp, #96]
.LBB42_46:
lsls	r1, r0, #2
ldr	r2, [sp, #4]
uxtb	r2, r2
ldr	r3, [sp, #88]
str	r2, [r3, r1]
adds	r0, r0, #1
str	r0, [sp, #96]
movs	r4, #0
ldr	r5, .LCPI42_5
.LBB42_47:
cmp	r4, #1
bne	.LBB42_48
b	.LBB42_94
.LBB42_48:
ldr	r1, [sp, #92]
cmp	r0, r1
bne	.LBB42_50
add	r0, sp, #88
movs	r1, #1
bl	_ZN4lisp4parm4heap3vec12Vec$LT$T$GT$14grow_amortized17h354e281ba8fc9017E
ldr	r0, [sp, #96]
.LBB42_50:
ldrb	r1, [r5, r4]
lsls	r2, r0, #2
ldr	r3, [sp, #88]
str	r1, [r3, r2]
adds	r0, r0, #1
str	r0, [sp, #96]
adds	r4, r4, #1
b	.LBB42_47
.LBB42_51:
movs	r4, #0
ldr	r5, .LCPI42_3
.LBB42_52:
cmp	r4, #25
bne	.LBB42_53
b	.LBB42_94
.LBB42_53:
ldr	r1, [sp, #92]
cmp	r0, r1
bne	.LBB42_55
add	r0, sp, #88
movs	r1, #1
bl	_ZN4lisp4parm4heap3vec12Vec$LT$T$GT$14grow_amortized17h354e281ba8fc9017E
ldr	r0, [sp, #96]
.LBB42_55:
ldrb	r1, [r5, r4]
lsls	r2, r0, #2
ldr	r3, [sp, #88]
str	r1, [r3, r2]
adds	r0, r0, #1
str	r0, [sp, #96]
adds	r4, r4, #1
b	.LBB42_52
.LBB42_56:
movs	r4, #0
ldr	r5, .LCPI42_2
.LBB42_57:
cmp	r4, #11
bne	.LBB42_58
b	.LBB42_94
.LBB42_58:
ldr	r1, [sp, #92]
cmp	r0, r1
bne	.LBB42_60
add	r0, sp, #88
movs	r1, #1
bl	_ZN4lisp4parm4heap3vec12Vec$LT$T$GT$14grow_amortized17h354e281ba8fc9017E
ldr	r0, [sp, #96]
.LBB42_60:
ldrb	r1, [r5, r4]
lsls	r2, r0, #2
ldr	r3, [sp, #88]
str	r1, [r3, r2]
adds	r0, r0, #1
str	r0, [sp, #96]
adds	r4, r4, #1
b	.LBB42_57
.LBB42_61:
ldr	r1, [sp, #92]
cmp	r0, r1
bne	.LBB42_63
add	r0, sp, #88
movs	r1, #1
bl	_ZN4lisp4parm4heap3vec12Vec$LT$T$GT$14grow_amortized17h354e281ba8fc9017E
ldr	r0, [sp, #96]
.LBB42_63:
lsls	r1, r0, #2
uxtb	r2, r6
ldr	r3, [sp, #88]
str	r2, [r3, r1]
adds	r0, r0, #1
str	r0, [sp, #96]
movs	r4, #0
ldr	r5, .LCPI42_11
.LBB42_64:
cmp	r4, #15
bne	.LBB42_65
b	.LBB42_94
.LBB42_65:
ldr	r1, [sp, #92]
cmp	r0, r1
bne	.LBB42_67
add	r0, sp, #88
movs	r1, #1
bl	_ZN4lisp4parm4heap3vec12Vec$LT$T$GT$14grow_amortized17h354e281ba8fc9017E
ldr	r0, [sp, #96]
.LBB42_67:
ldrb	r1, [r5, r4]
lsls	r2, r0, #2
ldr	r3, [sp, #88]
str	r1, [r3, r2]
adds	r0, r0, #1
str	r0, [sp, #96]
adds	r4, r4, #1
b	.LBB42_64
.LBB42_68:
ldr	r1, [sp, #92]
cmp	r0, r1
bne	.LBB42_70
add	r0, sp, #88
movs	r1, #1
bl	_ZN4lisp4parm4heap3vec12Vec$LT$T$GT$14grow_amortized17h354e281ba8fc9017E
ldr	r0, [sp, #96]
.LBB42_70:
lsls	r1, r0, #2
uxtb	r2, r6
ldr	r3, [sp, #88]
str	r2, [r3, r1]
adds	r0, r0, #1
str	r0, [sp, #96]
movs	r4, #0
ldr	r5, .LCPI42_10
.LBB42_71:
cmp	r4, #13
beq	.LBB42_80
ldr	r1, [sp, #92]
cmp	r0, r1
bne	.LBB42_74
add	r0, sp, #88
movs	r1, #1
bl	_ZN4lisp4parm4heap3vec12Vec$LT$T$GT$14grow_amortized17h354e281ba8fc9017E
ldr	r0, [sp, #96]
.LBB42_74:
ldrb	r1, [r5, r4]
lsls	r2, r0, #2
ldr	r3, [sp, #88]
str	r1, [r3, r2]
adds	r0, r0, #1
str	r0, [sp, #96]
adds	r4, r4, #1
b	.LBB42_71
.LBB42_75:
ldr	r5, .LCPI42_4
.LBB42_76:
cmp	r4, #33
beq	.LBB42_87
ldr	r1, [sp, #92]
cmp	r0, r1
bne	.LBB42_79
add	r0, sp, #88
movs	r1, #1
bl	_ZN4lisp4parm4heap3vec12Vec$LT$T$GT$14grow_amortized17h354e281ba8fc9017E
ldr	r0, [sp, #96]
.LBB42_79:
ldrb	r1, [r5, r4]
lsls	r2, r0, #2
ldr	r3, [sp, #88]
str	r1, [r3, r2]
adds	r0, r0, #1
str	r0, [sp, #96]
adds	r4, r4, #1
b	.LBB42_76
.LBB42_80:
ldr	r1, [sp, #92]
cmp	r0, r1
bne	.LBB42_82
add	r0, sp, #88
movs	r1, #1
bl	_ZN4lisp4parm4heap3vec12Vec$LT$T$GT$14grow_amortized17h354e281ba8fc9017E
ldr	r0, [sp, #96]
.LBB42_82:
lsls	r1, r0, #2
ldr	r2, [sp, #4]
uxtb	r2, r2
ldr	r3, [sp, #88]
str	r2, [r3, r1]
adds	r0, r0, #1
str	r0, [sp, #96]
movs	r4, #0
ldr	r5, .LCPI42_5
.LBB42_83:
cmp	r4, #1
beq	.LBB42_94
ldr	r1, [sp, #92]
cmp	r0, r1
bne	.LBB42_86
add	r0, sp, #88
movs	r1, #1
bl	_ZN4lisp4parm4heap3vec12Vec$LT$T$GT$14grow_amortized17h354e281ba8fc9017E
ldr	r0, [sp, #96]
.LBB42_86:
ldrb	r1, [r5, r4]
lsls	r2, r0, #2
ldr	r3, [sp, #88]
str	r1, [r3, r2]
adds	r0, r0, #1
str	r0, [sp, #96]
adds	r4, r4, #1
b	.LBB42_83
.LBB42_87:
ldr	r1, [sp, #92]
cmp	r0, r1
bne	.LBB42_89
add	r0, sp, #88
movs	r1, #1
bl	_ZN4lisp4parm4heap3vec12Vec$LT$T$GT$14grow_amortized17h354e281ba8fc9017E
ldr	r0, [sp, #96]
.LBB42_89:
lsls	r1, r0, #2
ldr	r2, [sp, #4]
uxtb	r2, r2
ldr	r3, [sp, #88]
str	r2, [r3, r1]
adds	r0, r0, #1
str	r0, [sp, #96]
movs	r4, #0
ldr	r5, .LCPI42_5
.LBB42_90:
cmp	r4, #1
beq	.LBB42_94
ldr	r1, [sp, #92]
cmp	r0, r1
bne	.LBB42_93
add	r0, sp, #88
movs	r1, #1
bl	_ZN4lisp4parm4heap3vec12Vec$LT$T$GT$14grow_amortized17h354e281ba8fc9017E
ldr	r0, [sp, #96]
.LBB42_93:
ldrb	r1, [r5, r4]
lsls	r2, r0, #2
ldr	r3, [sp, #88]
str	r1, [r3, r2]
adds	r0, r0, #1
str	r0, [sp, #96]
adds	r4, r4, #1
b	.LBB42_90
.LBB42_94:
add	r0, sp, #88
ldr	r4, [sp, #16]
ldm	r0!, {r1, r2, r3}
stm	r4!, {r1, r2, r3}
.LBB42_95:
add	r0, sp, #20
bl	_ZN4core3ptr53drop_in_place$LT$lisp..parm..heap..string..String$GT$17h255b53872c1e8529E
add	sp, #116
pop	{r4, r5, r6, r7, pc}
.p2align	2
.LCPI42_0:
.long	.L__unnamed_33
.LCPI42_1:
.long	4293853184
.LCPI42_2:
.long	.L__unnamed_34
.LCPI42_3:
.long	.L__unnamed_35
.LCPI42_4:
.long	.L__unnamed_36
.LCPI42_5:
.long	.L__unnamed_37
.LCPI42_6:
.long	.L__unnamed_38
.LCPI42_7:
.long	.L__unnamed_39
.LCPI42_8:
.long	.L__unnamed_40
.LCPI42_9:
.long	.L__unnamed_41
.LCPI42_10:
.long	.L__unnamed_42
.LCPI42_11:
.long	.L__unnamed_43
.LCPI42_12:
.long	.L__unnamed_44
.Lfunc_end42:
.size	_ZN4core3ops8function6FnOnce9call_once17habc34f73216e7969E, .Lfunc_end42-_ZN4core3ops8function6FnOnce9call_once17habc34f73216e7969E
.cantunwind
.fnend

.section	.text._ZN4core3ops8function6FnOnce9call_once17had5a922d9c70d1e5E,"ax",%progbits
.p2align	2
.type	_ZN4core3ops8function6FnOnce9call_once17had5a922d9c70d1e5E,%function
.code	16
.thumb_func
_ZN4core3ops8function6FnOnce9call_once17had5a922d9c70d1e5E:
.fnstart
.save	{r4, r5, r6, r7, lr}
push	{r4, r5, r6, r7, lr}
.setfp	r7, sp, #12
add	r7, sp, #12
.pad	#20
sub	sp, #20
mov	r5, r2
str	r0, [sp, #4]
movs	r4, #0
.LBB43_1:
ldr	r0, [r5]
cmp	r0, #0
beq	.LBB43_7
ldr	r1, [r5, #4]
ldr	r5, [r5, #8]
ldr	r6, [r5, #44]
adds	r1, #8
add	r0, sp, #8
movs	r3, #1
ldr	r2, .LCPI43_0
bl	_ZN4lisp4lisp3val7LispVal10expect_int17h19f09b58fab57fb9E
ldr	r0, [sp, #8]
cmp	r0, #0
bne	.LBB43_8
cmp	r6, #8
beq	.LBB43_5
ldr	r5, .LCPI43_1
b	.LBB43_6
.LBB43_5:
adds	r5, #8
.LBB43_6:
ldr	r0, [sp, #12]
adds	r4, r0, r4
b	.LBB43_1
.LBB43_7:
movs	r0, #1
lsls	r1, r0, #16
ldr	r2, [r1]
movs	r3, #64
str	r3, [r2]
mov	r3, r2
adds	r3, #68
str	r3, [r1]
movs	r1, #0
adds	r3, r2, #4
ldr	r5, [sp, #4]
stm	r5!, {r1, r3}
movs	r3, #4
str	r3, [r2, #48]
adds	r2, r2, #4
stm	r2!, {r0, r1, r4}
b	.LBB43_9
.LBB43_8:
ldr	r1, [sp, #12]
ldr	r2, [sp, #16]
ldr	r3, [sp, #4]
stm	r3!, {r0, r1, r2}
.LBB43_9:
add	sp, #20
pop	{r4, r5, r6, r7, pc}
.p2align	2
.LCPI43_0:
.long	.L__unnamed_45
.LCPI43_1:
.long	.L__unnamed_22
.Lfunc_end43:
.size	_ZN4core3ops8function6FnOnce9call_once17had5a922d9c70d1e5E, .Lfunc_end43-_ZN4core3ops8function6FnOnce9call_once17had5a922d9c70d1e5E
.cantunwind
.fnend

.section	.text._ZN4core3ops8function6FnOnce9call_once17hae289980d2e1583bE,"ax",%progbits
.p2align	2
.type	_ZN4core3ops8function6FnOnce9call_once17hae289980d2e1583bE,%function
.code	16
.thumb_func
_ZN4core3ops8function6FnOnce9call_once17hae289980d2e1583bE:
.fnstart
.save	{r7, lr}
.pad	#8
push	{r5, r6, r7, lr}
.setfp	r7, sp, #8
add	r7, sp, #8
mov	r1, r2
movs	r2, #4
str	r2, [sp]
movs	r2, #0
ldr	r3, .LCPI44_0
bl	_ZN4lisp4lisp4eval8builtins83_$LT$impl$u20$core..default..Default$u20$for$u20$lisp..lisp..env..SchemeEnvData$GT$7default9make_hash17h30c88d665b51e740E
pop	{r2, r3, r7, pc}
.p2align	2
.LCPI44_0:
.long	.L__unnamed_46
.Lfunc_end44:
.size	_ZN4core3ops8function6FnOnce9call_once17hae289980d2e1583bE, .Lfunc_end44-_ZN4core3ops8function6FnOnce9call_once17hae289980d2e1583bE
.cantunwind
.fnend

.section	.text._ZN4core3ops8function6FnOnce9call_once17haf2adb921959622eE,"ax",%progbits
.p2align	2
.type	_ZN4core3ops8function6FnOnce9call_once17haf2adb921959622eE,%function
.code	16
.thumb_func
_ZN4core3ops8function6FnOnce9call_once17haf2adb921959622eE:
.fnstart
.save	{r7, lr}
.pad	#8
push	{r5, r6, r7, lr}
.setfp	r7, sp, #8
add	r7, sp, #8
mov	r1, r2
movs	r2, #9
str	r2, [sp]
movs	r2, #1
ldr	r3, .LCPI45_0
bl	_ZN4lisp4lisp4eval8builtins83_$LT$impl$u20$core..default..Default$u20$for$u20$lisp..lisp..env..SchemeEnvData$GT$7default9make_hash17h30c88d665b51e740E
pop	{r2, r3, r7, pc}
.p2align	2
.LCPI45_0:
.long	.L__unnamed_47
.Lfunc_end45:
.size	_ZN4core3ops8function6FnOnce9call_once17haf2adb921959622eE, .Lfunc_end45-_ZN4core3ops8function6FnOnce9call_once17haf2adb921959622eE
.cantunwind
.fnend

.section	.text._ZN4core3ops8function6FnOnce9call_once17hbe84ff3d8a364248E,"ax",%progbits
.p2align	2
.type	_ZN4core3ops8function6FnOnce9call_once17hbe84ff3d8a364248E,%function
.code	16
.thumb_func
_ZN4core3ops8function6FnOnce9call_once17hbe84ff3d8a364248E:
.fnstart
.save	{r4, r5, r6, r7, lr}
push	{r4, r5, r6, r7, lr}
.setfp	r7, sp, #12
add	r7, sp, #12
.pad	#36
sub	sp, #36
str	r0, [sp, #4]
movs	r0, #1
lsls	r0, r0, #16
ldr	r1, [r0]
movs	r3, #64
str	r3, [r1]
mov	r3, r1
adds	r3, #68
str	r3, [r0]
movs	r0, #8
str	r0, [r1, #48]
movs	r0, #0
str	r0, [r1, #12]
str	r0, [sp]
str	r0, [r1, #8]
movs	r0, #3
str	r0, [r1, #4]
adds	r0, r1, #4
str	r0, [sp, #20]
str	r0, [sp, #16]
str	r0, [sp, #12]
ldr	r4, .LCPI46_1
.LBB46_1:
ldr	r0, [r2]
cmp	r0, #0
beq	.LBB46_11
ldr	r1, [r2, #4]
ldr	r6, [r2, #8]
ldr	r5, [r6, #44]
adds	r1, #8
add	r0, sp, #24
movs	r3, #6
ldr	r2, .LCPI46_0
bl	_ZN4lisp4lisp3val7LispVal11expect_list17h294e3e58bbc02a2aE
cmp	r5, #8
beq	.LBB46_4
str	r4, [sp, #8]
b	.LBB46_5
.LBB46_4:
adds	r6, #8
str	r6, [sp, #8]
.LBB46_5:
ldr	r5, [sp, #28]
ldr	r0, [sp, #24]
cmp	r0, #0
bne	.LBB46_12
.LBB46_6:
ldr	r0, [r5]
cmp	r0, #0
beq	.LBB46_10
ldr	r1, [r5, #4]
ldr	r5, [r5, #8]
ldr	r6, [r5, #44]
ldr	r0, [r1]
adds	r0, r0, #1
str	r0, [r1]
add	r0, sp, #12
bl	_ZN4lisp4lisp3val15LispListBuilder4push17h6b8263f332e9e854E
cmp	r6, #8
beq	.LBB46_9
mov	r5, r4
b	.LBB46_6
.LBB46_9:
adds	r5, #8
b	.LBB46_6
.LBB46_10:
ldr	r2, [sp, #8]
b	.LBB46_1
.LBB46_11:
add	r1, sp, #12
add	r0, sp, #24
mov	r2, r0
ldm	r1!, {r3, r4, r5}
stm	r2!, {r3, r4, r5}
bl	_ZN4lisp4lisp3val15LispListBuilder6finish17hb1784b4a5d2bfc82E
ldr	r1, [sp, #4]
ldr	r2, [sp]
str	r2, [r1]
str	r0, [r1, #4]
b	.LBB46_13
.LBB46_12:
ldr	r1, [sp, #32]
ldr	r2, [sp, #4]
stm	r2!, {r0, r5}
str	r1, [r2]
add	r0, sp, #12
bl	_ZN4core3ptr53drop_in_place$LT$lisp..lisp..val..LispListBuilder$GT$17h93e030bd379a099cE
.LBB46_13:
add	sp, #36
pop	{r4, r5, r6, r7, pc}
.p2align	2
.LCPI46_0:
.long	.L__unnamed_48
.LCPI46_1:
.long	.L__unnamed_22
.Lfunc_end46:
.size	_ZN4core3ops8function6FnOnce9call_once17hbe84ff3d8a364248E, .Lfunc_end46-_ZN4core3ops8function6FnOnce9call_once17hbe84ff3d8a364248E
.cantunwind
.fnend

.section	.text._ZN4core3ops8function6FnOnce9call_once17hc5b48ebdcb3e261bE,"ax",%progbits
.p2align	2
.type	_ZN4core3ops8function6FnOnce9call_once17hc5b48ebdcb3e261bE,%function
.code	16
.thumb_func
_ZN4core3ops8function6FnOnce9call_once17hc5b48ebdcb3e261bE:
.fnstart
.save	{r4, r5, r6, r7, lr}
.pad	#12
push	{r1, r2, r3, r4, r5, r6, r7, lr}
.setfp	r7, sp, #24
add	r7, sp, #24
mov	r1, r2
mov	r4, r0
mov	r0, sp
bl	_ZN4lisp4lisp3val8LispList5get_n17h4104062bc77cc0bcE
ldr	r0, [sp]
cmp	r0, #0
beq	.LBB47_4
ldr	r5, [sp, #4]
ldr	r1, [r0]
adds	r1, #8
mov	r0, sp
ldr	r2, .LCPI47_0
movs	r3, #1
bl	_ZN4lisp4lisp3val7LispVal10expect_int17h19f09b58fab57fb9E
ldr	r0, [sp]
cmp	r0, #0
bne	.LBB47_3
ldr	r6, [sp, #4]
ldr	r1, [r5]
adds	r1, #8
mov	r0, sp
ldr	r2, .LCPI47_0
movs	r5, #1
mov	r3, r5
bl	_ZN4lisp4lisp3val7LispVal10expect_int17h19f09b58fab57fb9E
ldr	r0, [sp]
cmp	r0, #0
beq	.LBB47_5
.LBB47_3:
ldr	r1, [sp, #4]
ldr	r2, [sp, #8]
str	r0, [r4]
str	r1, [r4, #4]
str	r2, [r4, #8]
pop	{r1, r2, r3, r4, r5, r6, r7, pc}
.LBB47_4:
ldr	r1, .LCPI47_0
movs	r2, #1
mov	r0, r4
bl	_ZN87_$LT$lisp..parm..heap..string..String$u20$as$u20$core..convert..From$LT$$RF$str$GT$$GT$4from17h25a10eb48256cf6dE
pop	{r1, r2, r3, r4, r5, r6, r7, pc}
.LBB47_5:
ldr	r1, [sp, #4]
lsls	r2, r5, #16
ldr	r0, [r2]
movs	r3, #64
str	r3, [r0]
mov	r3, r0
adds	r3, #68
str	r3, [r2]
movs	r2, #0
adds	r3, r0, #4
stm	r4!, {r2, r3}
movs	r3, #5
str	r3, [r0, #48]
subs	r1, r6, r1
rsbs	r3, r1, #0
adcs	r3, r1
strb	r3, [r0, #12]
str	r2, [r0, #8]
str	r5, [r0, #4]
pop	{r1, r2, r3, r4, r5, r6, r7, pc}
.p2align	2
.LCPI47_0:
.long	.L__unnamed_49
.Lfunc_end47:
.size	_ZN4core3ops8function6FnOnce9call_once17hc5b48ebdcb3e261bE, .Lfunc_end47-_ZN4core3ops8function6FnOnce9call_once17hc5b48ebdcb3e261bE
.cantunwind
.fnend

.section	.text._ZN4core3ops8function6FnOnce9call_once17hc6a595067be35b78E,"ax",%progbits
.p2align	2
.type	_ZN4core3ops8function6FnOnce9call_once17hc6a595067be35b78E,%function
.code	16
.thumb_func
_ZN4core3ops8function6FnOnce9call_once17hc6a595067be35b78E:
.fnstart
.save	{r4, r5, r6, r7, lr}
push	{r4, r5, r6, r7, lr}
.setfp	r7, sp, #12
add	r7, sp, #12
.pad	#60
sub	sp, #60
mov	r6, r1
mov	r5, r0
add	r0, sp, #44
mov	r1, r2
bl	_ZN4lisp4lisp3val8LispList10get_n_iter17h535ac9b9f6b24277E
ldr	r0, [sp, #44]
cmp	r0, #0
beq	.LBB48_3
ldr	r1, [sp, #52]
str	r1, [sp, #16]
ldr	r1, [sp, #48]
str	r1, [sp, #20]
ldr	r4, [r0]
ldr	r0, [r4, #44]
adds	r4, #8
cmp	r0, #11
bne	.LBB48_4
str	r6, [sp, #8]
str	r5, [sp, #12]
b	.LBB48_7
.LBB48_3:
ldr	r1, .LCPI48_1
movs	r2, #8
mov	r0, r5
b	.LBB48_21
.LBB48_4:
movs	r0, #4
str	r0, [sp, #4]
ldr	r0, .LCPI48_0
str	r0, [sp]
add	r0, sp, #44
ldr	r2, .LCPI48_1
movs	r3, #8
mov	r1, r4
bl	_ZN4lisp4lisp3val7LispVal14expect_message17h102cc36251d27a6bE
ldr	r0, [sp, #44]
cmp	r0, #0
beq	.LBB48_6
ldr	r1, [sp, #48]
ldr	r2, [sp, #52]
stm	r5!, {r0, r1, r2}
b	.LBB48_22
.LBB48_6:
str	r6, [sp, #8]
str	r5, [sp, #12]
ldr	r4, [sp, #48]
.LBB48_7:
ldr	r0, [r4, #8]
str	r0, [sp, #40]
cmp	r0, #0
beq	.LBB48_15
ldr	r0, [r4]
str	r0, [sp, #36]
ldr	r0, [sp, #20]
bl	_ZN4lisp4parm4heap6budmap25BudMap$LT$Key$C$Value$GT$4hash17h0781d81d4292815eE
mov	r2, r0
str	r1, [sp, #28]
ldr	r3, [r4, #20]
ldr	r0, [r4, #24]
str	r2, [sp, #32]
ands	r0, r2
ldr	r2, [r4, #12]
str	r2, [sp, #24]
.LBB48_9:
cmp	r0, r3
bhs	.LBB48_25
lsls	r6, r0, #3
ldr	r0, [r2, r6]
adds	r1, r0, #1
beq	.LBB48_15
ldr	r1, [sp, #40]
cmp	r0, r1
bhs	.LBB48_26
lsls	r0, r0, #4
ldr	r2, [sp, #36]
ldr	r1, [r2, r0]
ldr	r4, [sp, #32]
eors	r1, r4
adds	r5, r2, r0
ldr	r0, [r5, #4]
ldr	r2, [sp, #28]
eors	r0, r2
orrs	r0, r1
bne	.LBB48_14
mov	r0, r5
adds	r0, #8
ldr	r1, [sp, #20]
mov	r4, r3
bl	_ZN59_$LT$lisp..Prc$LT$T$GT$$u20$as$u20$core..cmp..PartialEq$GT$2eq17hd7c8c14caefa801fE
mov	r3, r4
cmp	r0, #0
bne	.LBB48_24
.LBB48_14:
ldr	r2, [sp, #24]
adds	r0, r2, r6
ldr	r0, [r0, #4]
adds	r1, r0, #1
bne	.LBB48_9
.LBB48_15:
ldr	r1, [sp, #16]
ldr	r0, [r1]
cmp	r0, #0
beq	.LBB48_20
ldr	r2, [r1, #4]
ldr	r3, [r2, #44]
cmp	r3, #10
ldr	r0, [sp, #12]
bhi	.LBB48_19
movs	r1, #1
lsls	r1, r3
ldr	r3, .LCPI48_4
tst	r1, r3
beq	.LBB48_19
movs	r1, #60
ldrb	r1, [r2, r1]
cmp	r1, #0
beq	.LBB48_23
.LBB48_19:
movs	r1, #0
stm	r0!, {r1, r2}
ldr	r0, [r2]
adds	r0, r0, #1
str	r0, [r2]
b	.LBB48_22
.LBB48_20:
ldr	r1, .LCPI48_6
movs	r2, #23
ldr	r0, [sp, #12]
.LBB48_21:
bl	_ZN87_$LT$lisp..parm..heap..string..String$u20$as$u20$core..convert..From$LT$$RF$str$GT$$GT$4from17h25a10eb48256cf6dE
.LBB48_22:
add	sp, #60
pop	{r4, r5, r6, r7, pc}
.LBB48_23:
adds	r2, #8
ldr	r3, .LCPI48_5
ldr	r1, [sp, #8]
bl	_ZN4lisp4lisp4eval4call44_$LT$impl$u20$lisp..lisp..env..SchemeEnv$GT$18eval_nonmacro_call17h82f4437c0349fe67E
b	.LBB48_22
.LBB48_24:
movs	r0, #0
ldr	r1, [r5, #12]
ldr	r2, [sp, #12]
stm	r2!, {r0, r1}
ldr	r0, [r1]
adds	r0, r0, #1
str	r0, [r1]
b	.LBB48_22
.LBB48_25:
ldr	r2, .LCPI48_2
mov	r1, r3
b	.LBB48_27
.LBB48_26:
ldr	r2, .LCPI48_3
ldr	r1, [sp, #40]
.LBB48_27:
bl	_ZN4core9panicking18panic_bounds_check17h1ca984f63bd01bd3E
.inst.n	0xdefe
.p2align	2
.LCPI48_0:
.long	.L__unnamed_46
.LCPI48_1:
.long	.L__unnamed_50
.LCPI48_2:
.long	.L__unnamed_51
.LCPI48_3:
.long	.L__unnamed_52
.LCPI48_4:
.long	1031
.LCPI48_5:
.long	.L__unnamed_22
.LCPI48_6:
.long	.L__unnamed_53
.Lfunc_end48:
.size	_ZN4core3ops8function6FnOnce9call_once17hc6a595067be35b78E, .Lfunc_end48-_ZN4core3ops8function6FnOnce9call_once17hc6a595067be35b78E
.cantunwind
.fnend

.section	.text._ZN4core3ops8function6FnOnce9call_once17hcaea78a4ad41b739E,"ax",%progbits
.p2align	2
.type	_ZN4core3ops8function6FnOnce9call_once17hcaea78a4ad41b739E,%function
.code	16
.thumb_func
_ZN4core3ops8function6FnOnce9call_once17hcaea78a4ad41b739E:
.fnstart
.save	{r4, r5, r7, lr}
.pad	#16
push	{r0, r1, r2, r3, r4, r5, r7, lr}
.setfp	r7, sp, #24
add	r7, sp, #24
mov	r1, r2
mov	r4, r0
add	r0, sp, #4
ldr	r2, .LCPI49_0
movs	r3, #7
bl	_ZN4lisp4lisp3val8LispList10expect_car17h8f7187e674c3274aE
ldr	r0, [sp, #4]
cmp	r0, #0
beq	.LBB49_2
ldr	r1, [sp, #8]
ldr	r2, [sp, #12]
stm	r4!, {r0, r1, r2}
pop	{r0, r1, r2, r3, r4, r5, r7, pc}
.LBB49_2:
ldr	r0, [sp, #8]
ldr	r0, [r0]
ldr	r1, [r0, #44]
movs	r2, #1
lsls	r3, r2, #16
ldr	r0, [r3]
movs	r5, #64
str	r5, [r0]
mov	r5, r0
adds	r5, #68
str	r5, [r3]
movs	r3, #0
adds	r5, r0, #4
stm	r4!, {r3, r5}
movs	r4, #5
str	r4, [r0, #48]
str	r3, [r0, #8]
str	r2, [r0, #4]
subs	r1, r1, #6
rsbs	r2, r1, #0
adcs	r2, r1
strb	r2, [r0, #12]
pop	{r0, r1, r2, r3, r4, r5, r7, pc}
.p2align	2
.LCPI49_0:
.long	.L__unnamed_54
.Lfunc_end49:
.size	_ZN4core3ops8function6FnOnce9call_once17hcaea78a4ad41b739E, .Lfunc_end49-_ZN4core3ops8function6FnOnce9call_once17hcaea78a4ad41b739E
.cantunwind
.fnend

.section	.text._ZN4core3ops8function6FnOnce9call_once17hd4c4cac9516568abE,"ax",%progbits
.p2align	2
.type	_ZN4core3ops8function6FnOnce9call_once17hd4c4cac9516568abE,%function
.code	16
.thumb_func
_ZN4core3ops8function6FnOnce9call_once17hd4c4cac9516568abE:
.fnstart
.save	{r4, r5, r6, r7, lr}
push	{r4, r5, r6, r7, lr}
.setfp	r7, sp, #12
add	r7, sp, #12
.pad	#28
sub	sp, #28
mov	r5, r2
mov	r4, r0
add	r0, sp, #16
ldr	r2, .LCPI50_0
movs	r3, #3
mov	r1, r5
bl	_ZN4lisp4lisp3val8LispList10expect_car17h8f7187e674c3274aE
ldr	r0, [sp, #16]
cmp	r0, #0
beq	.LBB50_2
ldr	r1, [sp, #20]
ldr	r2, [sp, #24]
b	.LBB50_4
.LBB50_2:
ldr	r0, [sp, #20]
ldr	r1, [r0]
adds	r1, #8
add	r0, sp, #4
ldr	r2, .LCPI50_0
movs	r3, #3
bl	_ZN4lisp4lisp3val7LispVal10expect_int17h19f09b58fab57fb9E
ldr	r0, [sp, #4]
cmp	r0, #0
beq	.LBB50_6
ldr	r1, [sp, #8]
ldr	r2, [sp, #12]
.LBB50_4:
str	r0, [r4]
str	r1, [r4, #4]
str	r2, [r4, #8]
.LBB50_5:
add	sp, #28
pop	{r4, r5, r6, r7, pc}
.LBB50_6:
str	r4, [sp]
ldr	r6, [sp, #8]
add	r0, sp, #16
ldr	r2, .LCPI50_0
movs	r3, #3
mov	r1, r5
bl	_ZN4lisp4lisp3val8LispList10expect_cdr17hd0b66696476ae54cE
ldr	r0, [sp, #16]
cmp	r0, #0
beq	.LBB50_8
.LBB50_7:
ldr	r1, [sp, #20]
ldr	r2, [sp, #24]
b	.LBB50_10
.LBB50_8:
ldr	r0, [sp, #20]
ldr	r1, [r0]
adds	r1, #8
add	r0, sp, #4
ldr	r2, .LCPI50_0
movs	r3, #3
bl	_ZN4lisp4lisp3val7LispVal11expect_list17h294e3e58bbc02a2aE
ldr	r0, [sp, #4]
cmp	r0, #0
beq	.LBB50_11
ldr	r1, [sp, #8]
ldr	r2, [sp, #12]
.LBB50_10:
ldr	r3, [sp]
str	r0, [r3]
str	r1, [r3, #4]
str	r2, [r3, #8]
b	.LBB50_5
.LBB50_11:
ldr	r5, [sp, #8]
.LBB50_12:
ldr	r0, [r5]
cmp	r0, #0
beq	.LBB50_20
mov	r4, r6
ldr	r1, [r5, #4]
ldr	r5, [r5, #8]
ldr	r6, [r5, #44]
adds	r1, #8
add	r0, sp, #16
movs	r3, #3
ldr	r2, .LCPI50_0
bl	_ZN4lisp4lisp3val7LispVal10expect_int17h19f09b58fab57fb9E
ldr	r0, [sp, #16]
cmp	r0, #0
bne	.LBB50_7
cmp	r6, #8
beq	.LBB50_16
ldr	r5, .LCPI50_1
b	.LBB50_17
.LBB50_16:
adds	r5, #8
.LBB50_17:
ldr	r0, [sp, #20]
cmp	r0, r4
bgt	.LBB50_19
mov	r0, r4
.LBB50_19:
mov	r6, r0
b	.LBB50_12
.LBB50_20:
movs	r0, #1
lsls	r1, r0, #16
ldr	r2, [r1]
movs	r3, #64
str	r3, [r2]
mov	r3, r2
adds	r3, #68
str	r3, [r1]
movs	r1, #0
adds	r3, r2, #4
ldr	r4, [sp]
stm	r4!, {r1, r3}
movs	r3, #4
str	r3, [r2, #48]
adds	r2, r2, #4
stm	r2!, {r0, r1, r6}
b	.LBB50_5
.p2align	2
.LCPI50_0:
.long	.L__unnamed_55
.LCPI50_1:
.long	.L__unnamed_22
.Lfunc_end50:
.size	_ZN4core3ops8function6FnOnce9call_once17hd4c4cac9516568abE, .Lfunc_end50-_ZN4core3ops8function6FnOnce9call_once17hd4c4cac9516568abE
.cantunwind
.fnend

.section	.text._ZN4core3ops8function6FnOnce9call_once17hd87be7a0c3df7defE,"ax",%progbits
.p2align	2
.type	_ZN4core3ops8function6FnOnce9call_once17hd87be7a0c3df7defE,%function
.code	16
.thumb_func
_ZN4core3ops8function6FnOnce9call_once17hd87be7a0c3df7defE:
.fnstart
.save	{r4, r6, r7, lr}
push	{r4, r6, r7, lr}
.setfp	r7, sp, #8
add	r7, sp, #8
.pad	#24
sub	sp, #24
mov	r4, r0
mov	r0, r2
bl	_ZN4lisp4lisp3val8LispList5get_n17h3a20a97af4f6f221E
cmp	r0, #0
beq	.LBB51_3
ldr	r1, [r0]
adds	r1, #8
add	r0, sp, #12
ldr	r2, .LCPI51_0
movs	r3, #4
bl	_ZN4lisp4lisp3val7LispVal11expect_list17h294e3e58bbc02a2aE
ldr	r0, [sp, #12]
cmp	r0, #0
beq	.LBB51_4
.LBB51_2:
ldr	r1, [sp, #16]
ldr	r2, [sp, #20]
b	.LBB51_6
.LBB51_3:
ldr	r1, .LCPI51_0
movs	r2, #4
mov	r0, r4
bl	_ZN87_$LT$lisp..parm..heap..string..String$u20$as$u20$core..convert..From$LT$$RF$str$GT$$GT$4from17h25a10eb48256cf6dE
b	.LBB51_7
.LBB51_4:
ldr	r1, [sp, #16]
mov	r0, sp
ldr	r2, .LCPI51_0
movs	r3, #4
bl	_ZN4lisp4lisp3val8LispList11expect_cons17h09878936b3701937E
ldr	r0, [sp]
cmp	r0, #0
beq	.LBB51_8
.LBB51_5:
ldr	r1, [sp, #4]
ldr	r2, [sp, #8]
.LBB51_6:
str	r0, [r4]
str	r1, [r4, #4]
str	r2, [r4, #8]
.LBB51_7:
add	sp, #24
pop	{r4, r6, r7, pc}
.LBB51_8:
ldr	r0, [sp, #8]
ldr	r1, [r0]
adds	r1, #8
add	r0, sp, #12
ldr	r2, .LCPI51_0
movs	r3, #4
bl	_ZN4lisp4lisp3val7LispVal11expect_list17h294e3e58bbc02a2aE
ldr	r0, [sp, #12]
cmp	r0, #0
bne	.LBB51_2
ldr	r1, [sp, #16]
mov	r0, sp
ldr	r2, .LCPI51_0
movs	r3, #4
bl	_ZN4lisp4lisp3val8LispList11expect_cons17h09878936b3701937E
ldr	r0, [sp]
cmp	r0, #0
bne	.LBB51_5
ldr	r0, [sp, #8]
movs	r1, #0
ldr	r0, [r0]
str	r1, [r4]
str	r0, [r4, #4]
ldr	r1, [r0]
adds	r1, r1, #1
str	r1, [r0]
b	.LBB51_7
.p2align	2
.LCPI51_0:
.long	.L__unnamed_56
.Lfunc_end51:
.size	_ZN4core3ops8function6FnOnce9call_once17hd87be7a0c3df7defE, .Lfunc_end51-_ZN4core3ops8function6FnOnce9call_once17hd87be7a0c3df7defE
.cantunwind
.fnend

.section	.text._ZN4core3ops8function6FnOnce9call_once17hdae24a6434b0c24bE,"ax",%progbits
.p2align	2
.type	_ZN4core3ops8function6FnOnce9call_once17hdae24a6434b0c24bE,%function
.code	16
.thumb_func
_ZN4core3ops8function6FnOnce9call_once17hdae24a6434b0c24bE:
.fnstart
.save	{r4, r5, r7, lr}
.pad	#16
push	{r0, r1, r2, r3, r4, r5, r7, lr}
.setfp	r7, sp, #24
add	r7, sp, #24
mov	r1, r2
mov	r4, r0
add	r0, sp, #4
ldr	r2, .LCPI52_0
movs	r3, #28
bl	_ZN4lisp4lisp3val8LispList10expect_car17h8f7187e674c3274aE
ldr	r0, [sp, #4]
cmp	r0, #0
beq	.LBB52_2
ldr	r1, [sp, #8]
ldr	r2, [sp, #12]
stm	r4!, {r0, r1, r2}
pop	{r0, r1, r2, r3, r4, r5, r7, pc}
.LBB52_2:
ldr	r0, [sp, #8]
movs	r1, #255
mvns	r5, r1
ldr	r1, [r0]
ldr	r2, [r1, #44]
cmp	r2, #6
bne	.LBB52_9
ldr	r0, [r1, #8]
ldr	r1, [r1, #16]
lsls	r1, r1, #2
.LBB52_4:
cmp	r1, #0
beq	.LBB52_10
ldm	r0!, {r2}
lsrs	r3, r2, #8
beq	.LBB52_7
movs	r2, #63
b	.LBB52_8
.LBB52_7:
uxtb	r2, r2
.LBB52_8:
str	r2, [r5]
subs	r1, r1, #4
b	.LBB52_4
.LBB52_9:
bl	_ZN63_$LT$lisp..Prc$LT$T$GT$$u20$as$u20$lisp..parm..tty..Display$GT$5write17h751a30208dcd1920E
.LBB52_10:
movs	r0, #10
str	r0, [r5]
movs	r0, #1
lsls	r1, r0, #16
ldr	r2, [r1]
movs	r3, #64
str	r3, [r2]
mov	r3, r2
adds	r3, #68
str	r3, [r1]
movs	r1, #0
adds	r3, r2, #4
stm	r4!, {r1, r3}
movs	r3, #9
str	r3, [r2, #48]
str	r1, [r2, #8]
str	r0, [r2, #4]
pop	{r0, r1, r2, r3, r4, r5, r7, pc}
.p2align	2
.LCPI52_0:
.long	.L__unnamed_57
.Lfunc_end52:
.size	_ZN4core3ops8function6FnOnce9call_once17hdae24a6434b0c24bE, .Lfunc_end52-_ZN4core3ops8function6FnOnce9call_once17hdae24a6434b0c24bE
.cantunwind
.fnend

.section	.text._ZN4core3ops8function6FnOnce9call_once17he413dd11e509748dE,"ax",%progbits
.p2align	2
.type	_ZN4core3ops8function6FnOnce9call_once17he413dd11e509748dE,%function
.code	16
.thumb_func
_ZN4core3ops8function6FnOnce9call_once17he413dd11e509748dE:
.fnstart
.save	{r4, r5, r6, r7, lr}
.pad	#12
push	{r1, r2, r3, r4, r5, r6, r7, lr}
.setfp	r7, sp, #24
add	r7, sp, #24
mov	r1, r2
mov	r4, r0
add	r0, sp, #4
bl	_ZN4lisp4lisp3val8LispList5get_n17h4104062bc77cc0bcE
ldr	r0, [sp, #4]
cmp	r0, #0
beq	.LBB53_2
ldr	r1, [sp, #8]
ldr	r0, [r0]
ldr	r2, [r0]
adds	r2, r2, #1
str	r2, [r0]
ldr	r1, [r1]
ldr	r2, [r1]
adds	r2, r2, #1
str	r2, [r1]
movs	r2, #1
lsls	r5, r2, #16
ldr	r3, [r5]
movs	r6, #64
str	r6, [r3]
mov	r6, r3
adds	r6, #68
str	r6, [r5]
movs	r5, #0
adds	r6, r3, #4
stm	r4!, {r5, r6}
movs	r4, #8
str	r4, [r3, #48]
str	r1, [r3, #20]
str	r0, [r3, #16]
str	r2, [r3, #12]
str	r5, [r3, #8]
str	r2, [r3, #4]
pop	{r1, r2, r3, r4, r5, r6, r7, pc}
.LBB53_2:
ldr	r1, .LCPI53_0
movs	r2, #28
mov	r0, r4
bl	_ZN87_$LT$lisp..parm..heap..string..String$u20$as$u20$core..convert..From$LT$$RF$str$GT$$GT$4from17h25a10eb48256cf6dE
pop	{r1, r2, r3, r4, r5, r6, r7, pc}
.p2align	2
.LCPI53_0:
.long	.L__unnamed_58
.Lfunc_end53:
.size	_ZN4core3ops8function6FnOnce9call_once17he413dd11e509748dE, .Lfunc_end53-_ZN4core3ops8function6FnOnce9call_once17he413dd11e509748dE
.cantunwind
.fnend

.section	.text._ZN4core3ops8function6FnOnce9call_once17he8dc64cfef41ecdbE,"ax",%progbits
.p2align	2
.type	_ZN4core3ops8function6FnOnce9call_once17he8dc64cfef41ecdbE,%function
.code	16
.thumb_func
_ZN4core3ops8function6FnOnce9call_once17he8dc64cfef41ecdbE:
.fnstart
.save	{r4, r5, r6, r7, lr}
push	{r4, r5, r6, r7, lr}
.setfp	r7, sp, #12
add	r7, sp, #12
.pad	#28
sub	sp, #28
mov	r5, r2
mov	r4, r0
add	r0, sp, #16
ldr	r2, .LCPI54_0
movs	r3, #10
mov	r1, r5
bl	_ZN4lisp4lisp3val8LispList10expect_car17h8f7187e674c3274aE
ldr	r0, [sp, #16]
cmp	r0, #0
beq	.LBB54_2
.LBB54_1:
ldr	r1, [sp, #20]
ldr	r2, [sp, #24]
b	.LBB54_4
.LBB54_2:
ldr	r0, [sp, #20]
ldr	r1, [r0]
adds	r1, #8
add	r0, sp, #4
ldr	r2, .LCPI54_0
movs	r3, #10
bl	_ZN4lisp4lisp3val7LispVal13expect_string17h839c7e0d9c3b51baE
ldr	r0, [sp, #4]
cmp	r0, #0
beq	.LBB54_6
.LBB54_3:
ldr	r1, [sp, #8]
ldr	r2, [sp, #12]
.LBB54_4:
str	r0, [r4]
str	r1, [r4, #4]
str	r2, [r4, #8]
.LBB54_5:
add	sp, #28
pop	{r4, r5, r6, r7, pc}
.LBB54_6:
ldr	r6, [sp, #8]
add	r0, sp, #16
ldr	r2, .LCPI54_0
movs	r3, #10
mov	r1, r5
bl	_ZN4lisp4lisp3val8LispList11expect_cadr17hc60511602eada018E
ldr	r0, [sp, #16]
cmp	r0, #0
bne	.LBB54_1
ldr	r0, [sp, #20]
ldr	r1, [r0]
adds	r1, #8
add	r0, sp, #4
ldr	r2, .LCPI54_0
movs	r3, #10
bl	_ZN4lisp4lisp3val7LispVal10expect_int17h19f09b58fab57fb9E
ldr	r0, [sp, #4]
cmp	r0, #0
bne	.LBB54_3
ldr	r0, [sp, #8]
ldr	r1, [r6, #8]
cmp	r0, r1
bhs	.LBB54_10
lsls	r0, r0, #2
ldr	r1, [r6]
ldr	r1, [r1, r0]
movs	r0, #1
lsls	r2, r0, #16
ldr	r3, [r2]
movs	r5, #64
str	r5, [r3]
mov	r5, r3
adds	r5, #68
str	r5, [r2]
movs	r2, #0
adds	r5, r3, #4
stm	r4!, {r2, r5}
movs	r4, #7
str	r4, [r3, #48]
str	r1, [r3, #12]
str	r2, [r3, #8]
str	r0, [r3, #4]
b	.LBB54_5
.LBB54_10:
ldr	r1, .LCPI54_0
movs	r2, #10
mov	r0, r4
bl	_ZN87_$LT$lisp..parm..heap..string..String$u20$as$u20$core..convert..From$LT$$RF$str$GT$$GT$4from17h25a10eb48256cf6dE
b	.LBB54_5
.p2align	2
.LCPI54_0:
.long	.L__unnamed_59
.Lfunc_end54:
.size	_ZN4core3ops8function6FnOnce9call_once17he8dc64cfef41ecdbE, .Lfunc_end54-_ZN4core3ops8function6FnOnce9call_once17he8dc64cfef41ecdbE
.cantunwind
.fnend

.section	.text._ZN4core3ops8function6FnOnce9call_once17hedc7773063a8d3cfE,"ax",%progbits
.p2align	2
.type	_ZN4core3ops8function6FnOnce9call_once17hedc7773063a8d3cfE,%function
.code	16
.thumb_func
_ZN4core3ops8function6FnOnce9call_once17hedc7773063a8d3cfE:
.fnstart
.save	{r4, r5, r6, r7, lr}
push	{r4, r5, r6, r7, lr}
.setfp	r7, sp, #12
add	r7, sp, #12
.pad	#36
sub	sp, #36
mov	r6, r2
mov	r5, r1
mov	r4, r0
add	r0, sp, #24
ldr	r2, .LCPI55_0
movs	r3, #5
mov	r1, r6
bl	_ZN4lisp4lisp3val8LispList11expect_cons17h09878936b3701937E
ldr	r0, [sp, #24]
cmp	r0, #0
bne	.LBB55_3
ldr	r6, [sp, #32]
ldr	r0, [sp, #28]
ldr	r1, [r0]
adds	r1, #8
add	r0, sp, #24
ldr	r2, .LCPI55_0
movs	r3, #5
bl	_ZN4lisp4lisp3val7LispVal15expect_nonmacro17hcb2057f471f32edaE
ldr	r0, [sp, #24]
cmp	r0, #0
bne	.LBB55_3
ldr	r0, [sp, #28]
str	r0, [sp, #8]
ldr	r1, [r6]
adds	r1, #8
add	r0, sp, #24
ldr	r2, .LCPI55_1
movs	r3, #5
bl	_ZN4lisp4lisp3val7LispVal11expect_list17h294e3e58bbc02a2aE
ldr	r0, [sp, #24]
cmp	r0, #0
beq	.LBB55_6
.LBB55_3:
ldr	r1, [sp, #28]
ldr	r2, [sp, #32]
.LBB55_4:
str	r0, [r4]
str	r1, [r4, #4]
str	r2, [r4, #8]
.LBB55_5:
add	sp, #36
pop	{r4, r5, r6, r7, pc}
.LBB55_6:
ldr	r6, [sp, #8]
ldr	r1, [sp, #28]
add	r0, sp, #12
bl	_ZN4lisp4lisp4eval8builtins83_$LT$impl$u20$core..default..Default$u20$for$u20$lisp..lisp..env..SchemeEnvData$GT$7default9list_star17h84dc23c5c284b4e7E
ldr	r0, [sp, #12]
cmp	r0, #0
beq	.LBB55_8
ldr	r1, [sp, #16]
ldr	r2, [sp, #20]
b	.LBB55_4
.LBB55_8:
ldr	r1, [sp, #16]
str	r1, [sp, #4]
adds	r1, #8
add	r0, sp, #24
ldr	r2, .LCPI55_2
movs	r3, #0
bl	_ZN4lisp4lisp3val7LispVal11expect_list17h294e3e58bbc02a2aE
ldr	r3, [sp, #28]
mov	r0, r4
mov	r1, r5
mov	r2, r6
bl	_ZN4lisp4lisp4eval4call44_$LT$impl$u20$lisp..lisp..env..SchemeEnv$GT$18eval_nonmacro_call17h82f4437c0349fe67E
ldr	r1, [sp, #4]
ldr	r0, [r1]
subs	r0, r0, #1
beq	.LBB55_5
str	r0, [r1]
b	.LBB55_5
.p2align	2
.LCPI55_0:
.long	.L__unnamed_60
.LCPI55_1:
.long	.L__unnamed_61
.LCPI55_2:
.long	.L__unnamed_62
.Lfunc_end55:
.size	_ZN4core3ops8function6FnOnce9call_once17hedc7773063a8d3cfE, .Lfunc_end55-_ZN4core3ops8function6FnOnce9call_once17hedc7773063a8d3cfE
.cantunwind
.fnend

.section	.text._ZN4core3ops8function6FnOnce9call_once17hef03ec3c9f15e97eE,"ax",%progbits
.p2align	2
.type	_ZN4core3ops8function6FnOnce9call_once17hef03ec3c9f15e97eE,%function
.code	16
.thumb_func
_ZN4core3ops8function6FnOnce9call_once17hef03ec3c9f15e97eE:
.fnstart
.save	{r4, r6, r7, lr}
push	{r4, r6, r7, lr}
.setfp	r7, sp, #8
add	r7, sp, #8
mov	r4, r0
mov	r0, r2
bl	_ZN4lisp4lisp3val8LispList5get_n17h3a20a97af4f6f221E
cmp	r0, #0
beq	.LBB56_2
movs	r1, #0
ldr	r0, [r0]
str	r1, [r4]
str	r0, [r4, #4]
ldr	r1, [r0]
adds	r1, r1, #1
str	r1, [r0]
pop	{r4, r6, r7, pc}
.LBB56_2:
ldr	r1, .LCPI56_0
movs	r2, #8
mov	r0, r4
bl	_ZN87_$LT$lisp..parm..heap..string..String$u20$as$u20$core..convert..From$LT$$RF$str$GT$$GT$4from17h25a10eb48256cf6dE
pop	{r4, r6, r7, pc}
.p2align	2
.LCPI56_0:
.long	.L__unnamed_63
.Lfunc_end56:
.size	_ZN4core3ops8function6FnOnce9call_once17hef03ec3c9f15e97eE, .Lfunc_end56-_ZN4core3ops8function6FnOnce9call_once17hef03ec3c9f15e97eE
.cantunwind
.fnend

.section	.text._ZN4core3ops8function6FnOnce9call_once17hf2a4e6ec997c6e56E,"ax",%progbits
.p2align	2
.type	_ZN4core3ops8function6FnOnce9call_once17hf2a4e6ec997c6e56E,%function
.code	16
.thumb_func
_ZN4core3ops8function6FnOnce9call_once17hf2a4e6ec997c6e56E:
.fnstart
.save	{r4, r5, r6, r7, lr}
.pad	#12
push	{r1, r2, r3, r4, r5, r6, r7, lr}
.setfp	r7, sp, #24
add	r7, sp, #24
mov	r1, r2
mov	r4, r0
mov	r0, sp
bl	_ZN4lisp4lisp3val8LispList5get_n17h4104062bc77cc0bcE
ldr	r0, [sp]
cmp	r0, #0
beq	.LBB57_4
ldr	r6, [sp, #4]
ldr	r1, [r0]
adds	r1, #8
mov	r0, sp
ldr	r2, .LCPI57_0
movs	r3, #2
bl	_ZN4lisp4lisp3val7LispVal10expect_int17h19f09b58fab57fb9E
ldr	r0, [sp]
cmp	r0, #0
bne	.LBB57_3
ldr	r5, [sp, #4]
ldr	r1, [r6]
adds	r1, #8
mov	r0, sp
ldr	r2, .LCPI57_0
movs	r3, #2
bl	_ZN4lisp4lisp3val7LispVal10expect_int17h19f09b58fab57fb9E
ldr	r0, [sp]
cmp	r0, #0
beq	.LBB57_5
.LBB57_3:
ldr	r1, [sp, #4]
ldr	r2, [sp, #8]
str	r0, [r4]
str	r1, [r4, #4]
str	r2, [r4, #8]
pop	{r1, r2, r3, r4, r5, r6, r7, pc}
.LBB57_4:
ldr	r1, .LCPI57_0
movs	r2, #2
mov	r0, r4
bl	_ZN87_$LT$lisp..parm..heap..string..String$u20$as$u20$core..convert..From$LT$$RF$str$GT$$GT$4from17h25a10eb48256cf6dE
pop	{r1, r2, r3, r4, r5, r6, r7, pc}
.LBB57_5:
ldr	r2, [sp, #4]
movs	r0, #1
lsls	r3, r0, #16
ldr	r1, [r3]
movs	r6, #64
str	r6, [r1]
mov	r6, r1
adds	r6, #68
str	r6, [r3]
movs	r3, #0
adds	r6, r1, #4
stm	r4!, {r3, r6}
movs	r4, #5
str	r4, [r1, #48]
cmp	r5, r2
mov	r2, r0
bge	.LBB57_7
mov	r2, r3
.LBB57_7:
strb	r2, [r1, #12]
str	r0, [r1, #4]
str	r3, [r1, #8]
pop	{r1, r2, r3, r4, r5, r6, r7, pc}
.p2align	2
.LCPI57_0:
.long	.L__unnamed_64
.Lfunc_end57:
.size	_ZN4core3ops8function6FnOnce9call_once17hf2a4e6ec997c6e56E, .Lfunc_end57-_ZN4core3ops8function6FnOnce9call_once17hf2a4e6ec997c6e56E
.cantunwind
.fnend

.section	.text._ZN4core3ops8function6FnOnce9call_once17hfd3ddb2d5fb43613E,"ax",%progbits
.p2align	2
.type	_ZN4core3ops8function6FnOnce9call_once17hfd3ddb2d5fb43613E,%function
.code	16
.thumb_func
_ZN4core3ops8function6FnOnce9call_once17hfd3ddb2d5fb43613E:
.fnstart
.save	{r4, r5, r6, r7, lr}
push	{r4, r5, r6, r7, lr}
.setfp	r7, sp, #12
add	r7, sp, #12
.pad	#28
sub	sp, #28
mov	r4, r0
movs	r0, #0
ldr	r1, .LCPI58_0
.LBB58_1:
cmp	r0, #12
beq	.LBB58_7
ldr	r3, [r2]
cmp	r3, #0
beq	.LBB58_11
adds	r3, r2, #4
add	r5, sp, #16
str	r3, [r5, r0]
ldr	r2, [r2, #8]
ldr	r3, [r2, #44]
cmp	r3, #8
beq	.LBB58_5
mov	r2, r1
b	.LBB58_6
.LBB58_5:
adds	r2, #8
.LBB58_6:
adds	r0, r0, #4
b	.LBB58_1
.LBB58_7:
ldr	r0, [sp, #16]
cmp	r0, #0
beq	.LBB58_11
ldr	r1, [sp, #24]
str	r1, [sp, #12]
ldr	r1, [sp, #20]
str	r1, [sp, #8]
bl	_ZN4lisp12Prc$LT$T$GT$10borrow_mut17h92d1b754b9bd4d6dE
mov	r6, r0
mov	r5, r1
ldr	r0, [r0, #36]
cmp	r0, #11
beq	.LBB58_13
movs	r0, #4
str	r0, [sp, #4]
ldr	r0, .LCPI58_1
str	r0, [sp]
add	r0, sp, #16
ldr	r2, .LCPI58_2
movs	r3, #9
mov	r1, r6
bl	_ZN4lisp4lisp3val7LispVal14expect_message17h102cc36251d27a6bE
ldr	r0, [sp, #16]
cmp	r0, #0
beq	.LBB58_12
ldr	r1, [sp, #20]
ldr	r2, [sp, #24]
stm	r4!, {r0, r1, r2}
b	.LBB58_19
.LBB58_11:
ldr	r1, .LCPI58_2
movs	r2, #9
mov	r0, r4
bl	_ZN87_$LT$lisp..parm..heap..string..String$u20$as$u20$core..convert..From$LT$$RF$str$GT$$GT$4from17h25a10eb48256cf6dE
b	.LBB58_20
.LBB58_12:
ldr	r6, [sp, #20]
.LBB58_13:
movs	r0, #32
ldrb	r0, [r6, r0]
cmp	r0, #0
beq	.LBB58_18
ldr	r0, [sp, #8]
ldr	r1, [r0]
ldr	r0, [r1]
adds	r0, r0, #1
str	r0, [r1]
ldr	r0, [sp, #12]
ldr	r2, [r0]
ldr	r0, [r2]
adds	r0, r0, #1
str	r0, [r2]
mov	r0, r6
bl	_ZN4lisp4parm4heap6budmap25BudMap$LT$Key$C$Value$GT$6insert17hc294ca10f16dea5aE
cmp	r0, #0
beq	.LBB58_17
ldr	r0, [r1]
subs	r0, r0, #1
beq	.LBB58_17
str	r0, [r1]
.LBB58_17:
movs	r0, #1
lsls	r1, r0, #16
ldr	r2, [r1]
movs	r3, #64
str	r3, [r2]
mov	r3, r2
adds	r3, #68
str	r3, [r1]
movs	r1, #0
adds	r3, r2, #4
stm	r4!, {r1, r3}
movs	r3, #9
str	r3, [r2, #48]
str	r1, [r2, #8]
str	r0, [r2, #4]
b	.LBB58_19
.LBB58_18:
ldr	r1, .LCPI58_3
movs	r2, #27
mov	r0, r4
bl	_ZN87_$LT$lisp..parm..heap..string..String$u20$as$u20$core..convert..From$LT$$RF$str$GT$$GT$4from17h25a10eb48256cf6dE
.LBB58_19:
ldr	r0, [r5]
adds	r0, r0, #1
str	r0, [r5]
.LBB58_20:
add	sp, #28
pop	{r4, r5, r6, r7, pc}
.p2align	2
.LCPI58_0:
.long	.L__unnamed_22
.LCPI58_1:
.long	.L__unnamed_46
.LCPI58_2:
.long	.L__unnamed_65
.LCPI58_3:
.long	.L__unnamed_66
.Lfunc_end58:
.size	_ZN4core3ops8function6FnOnce9call_once17hfd3ddb2d5fb43613E, .Lfunc_end58-_ZN4core3ops8function6FnOnce9call_once17hfd3ddb2d5fb43613E
.cantunwind
.fnend

.section	".text._ZN4core3ptr120drop_in_place$LT$core..result..Result$LT$$RF$lisp..parm..heap..string..String$C$lisp..parm..heap..string..String$GT$$GT$17h0f56d1dcda09fd03E","ax",%progbits
.p2align	1
.type	_ZN4core3ptr120drop_in_place$LT$core..result..Result$LT$$RF$lisp..parm..heap..string..String$C$lisp..parm..heap..string..String$GT$$GT$17h0f56d1dcda09fd03E,%function
.code	16
.thumb_func
_ZN4core3ptr120drop_in_place$LT$core..result..Result$LT$$RF$lisp..parm..heap..string..String$C$lisp..parm..heap..string..String$GT$$GT$17h0f56d1dcda09fd03E:
.fnstart
.save	{r7, lr}
push	{r7, lr}
.setfp	r7, sp
add	r7, sp, #0
ldr	r1, [r0]
cmp	r1, #0
beq	.LBB59_2
bl	_ZN4core3ptr53drop_in_place$LT$lisp..parm..heap..string..String$GT$17h255b53872c1e8529E
.LBB59_2:
pop	{r7, pc}
.Lfunc_end59:
.size	_ZN4core3ptr120drop_in_place$LT$core..result..Result$LT$$RF$lisp..parm..heap..string..String$C$lisp..parm..heap..string..String$GT$$GT$17h0f56d1dcda09fd03E, .Lfunc_end59-_ZN4core3ptr120drop_in_place$LT$core..result..Result$LT$$RF$lisp..parm..heap..string..String$C$lisp..parm..heap..string..String$GT$$GT$17h0f56d1dcda09fd03E
.cantunwind
.fnend

.section	".text._ZN4core3ptr146drop_in_place$LT$lisp..parm..heap..budmap..BudMap$LT$lisp..Prc$LT$lisp..lisp..val..LispVal$GT$$C$lisp..Prc$LT$lisp..lisp..val..LispVal$GT$$GT$$GT$17h53d2e16dc112c058E","ax",%progbits
.p2align	1
.type	_ZN4core3ptr146drop_in_place$LT$lisp..parm..heap..budmap..BudMap$LT$lisp..Prc$LT$lisp..lisp..val..LispVal$GT$$C$lisp..Prc$LT$lisp..lisp..val..LispVal$GT$$GT$$GT$17h53d2e16dc112c058E,%function
.code	16
.thumb_func
_ZN4core3ptr146drop_in_place$LT$lisp..parm..heap..budmap..BudMap$LT$lisp..Prc$LT$lisp..lisp..val..LispVal$GT$$C$lisp..Prc$LT$lisp..lisp..val..LispVal$GT$$GT$$GT$17h53d2e16dc112c058E:
.fnstart
.save	{r4, r5, r7, lr}
push	{r4, r5, r7, lr}
.setfp	r7, sp, #8
add	r7, sp, #8
ldr	r2, [r0]
ldr	r1, [r0, #8]
lsls	r3, r1, #4
adds	r2, r3, r2
subs	r2, #8
.LBB60_1:
cmp	r1, #0
beq	.LBB60_7
subs	r1, r1, #1
str	r1, [r0, #8]
ldr	r4, [r2]
ldr	r3, [r2, #4]
ldr	r5, [r4]
subs	r5, r5, #1
beq	.LBB60_4
str	r5, [r4]
.LBB60_4:
ldr	r4, [r3]
subs	r4, r4, #1
beq	.LBB60_6
str	r4, [r3]
.LBB60_6:
subs	r2, #16
b	.LBB60_1
.LBB60_7:
ldr	r1, [r0, #20]
.LBB60_8:
cmp	r1, #0
beq	.LBB60_10
subs	r1, r1, #1
str	r1, [r0, #20]
b	.LBB60_8
.LBB60_10:
pop	{r4, r5, r7, pc}
.Lfunc_end60:
.size	_ZN4core3ptr146drop_in_place$LT$lisp..parm..heap..budmap..BudMap$LT$lisp..Prc$LT$lisp..lisp..val..LispVal$GT$$C$lisp..Prc$LT$lisp..lisp..val..LispVal$GT$$GT$$GT$17h53d2e16dc112c058E, .Lfunc_end60-_ZN4core3ptr146drop_in_place$LT$lisp..parm..heap..budmap..BudMap$LT$lisp..Prc$LT$lisp..lisp..val..LispVal$GT$$C$lisp..Prc$LT$lisp..lisp..val..LispVal$GT$$GT$$GT$17h53d2e16dc112c058E
.cantunwind
.fnend

.section	".text._ZN4core3ptr45drop_in_place$LT$lisp..lisp..val..LispVal$GT$17h737b995d74e33cc4E","ax",%progbits
.p2align	2
.type	_ZN4core3ptr45drop_in_place$LT$lisp..lisp..val..LispVal$GT$17h737b995d74e33cc4E,%function
.code	16
.thumb_func
_ZN4core3ptr45drop_in_place$LT$lisp..lisp..val..LispVal$GT$17h737b995d74e33cc4E:
.fnstart
.save	{r4, r5, r7, lr}
push	{r4, r5, r7, lr}
.setfp	r7, sp, #8
add	r7, sp, #8
mov	r4, r0
ldr	r0, [r0, #36]
cmp	r0, #2
bhi	.LBB61_2
movs	r1, #7
b	.LBB61_3
.LBB61_2:
subs	r1, r0, #3
.LBB61_3:
cmp	r1, #8
bhi	.LBB61_8
.p2align	2
add	r1, pc
ldrb	r1, [r1, #4]
lsls	r1, r1, #1
.LCPI61_0:
add	pc, r1
.p2align	2
.LJTI61_0:
.byte	(.LBB61_6-(.LCPI61_0+4))/2
.byte	(.LBB61_8-(.LCPI61_0+4))/2
.byte	(.LBB61_8-(.LCPI61_0+4))/2
.byte	(.LBB61_6-(.LCPI61_0+4))/2
.byte	(.LBB61_8-(.LCPI61_0+4))/2
.byte	(.LBB61_7-(.LCPI61_0+4))/2
.byte	(.LBB61_8-(.LCPI61_0+4))/2
.byte	(.LBB61_9-(.LCPI61_0+4))/2
.byte	(.LBB61_12-(.LCPI61_0+4))/2
.p2align	1
.LBB61_6:
mov	r0, r4
bl	_ZN4core3ptr53drop_in_place$LT$lisp..parm..heap..string..String$GT$17h255b53872c1e8529E
pop	{r4, r5, r7, pc}
.LBB61_7:
mov	r0, r4
bl	_ZN4core3ptr46drop_in_place$LT$lisp..lisp..val..LispList$GT$17hd9db06d8e85b1709E
.LBB61_8:
pop	{r4, r5, r7, pc}
.LBB61_9:
cmp	r0, #2
beq	.LBB61_6
mov	r5, r4
adds	r5, #36
mov	r0, r4
bl	_ZN4core3ptr120drop_in_place$LT$core..result..Result$LT$$RF$lisp..parm..heap..string..String$C$lisp..parm..heap..string..String$GT$$GT$17h0f56d1dcda09fd03E
mov	r0, r4
adds	r0, #12
bl	_ZN4core3ptr49drop_in_place$LT$lisp..lisp..val..ClosureArgs$GT$17h8fa271c1e97a5ff3E
mov	r0, r5
bl	_ZN4core3ptr46drop_in_place$LT$lisp..lisp..val..LispList$GT$17hd9db06d8e85b1709E
ldr	r0, [r4, #48]
ldr	r1, [r0]
subs	r1, r1, #1
beq	.LBB61_8
str	r1, [r0]
pop	{r4, r5, r7, pc}
.LBB61_12:
mov	r0, r4
bl	_ZN4core3ptr146drop_in_place$LT$lisp..parm..heap..budmap..BudMap$LT$lisp..Prc$LT$lisp..lisp..val..LispVal$GT$$C$lisp..Prc$LT$lisp..lisp..val..LispVal$GT$$GT$$GT$17h53d2e16dc112c058E
pop	{r4, r5, r7, pc}
.Lfunc_end61:
.size	_ZN4core3ptr45drop_in_place$LT$lisp..lisp..val..LispVal$GT$17h737b995d74e33cc4E, .Lfunc_end61-_ZN4core3ptr45drop_in_place$LT$lisp..lisp..val..LispVal$GT$17h737b995d74e33cc4E
.cantunwind
.fnend

.section	".text._ZN4core3ptr46drop_in_place$LT$lisp..lisp..val..LispList$GT$17hd9db06d8e85b1709E","ax",%progbits
.p2align	1
.type	_ZN4core3ptr46drop_in_place$LT$lisp..lisp..val..LispList$GT$17hd9db06d8e85b1709E,%function
.code	16
.thumb_func
_ZN4core3ptr46drop_in_place$LT$lisp..lisp..val..LispList$GT$17hd9db06d8e85b1709E:
.fnstart
ldr	r1, [r0]
cmp	r1, #0
beq	.LBB62_5
ldr	r1, [r0, #4]
ldr	r2, [r1]
subs	r2, r2, #1
beq	.LBB62_3
str	r2, [r1]
.LBB62_3:
ldr	r0, [r0, #8]
ldr	r1, [r0]
subs	r1, r1, #1
beq	.LBB62_5
str	r1, [r0]
.LBB62_5:
bx	lr
.Lfunc_end62:
.size	_ZN4core3ptr46drop_in_place$LT$lisp..lisp..val..LispList$GT$17hd9db06d8e85b1709E, .Lfunc_end62-_ZN4core3ptr46drop_in_place$LT$lisp..lisp..val..LispList$GT$17hd9db06d8e85b1709E
.cantunwind
.fnend

.section	".text._ZN4core3ptr47drop_in_place$LT$core..cell..BorrowMutError$GT$17h40d368baf1631f2fE","ax",%progbits
.p2align	1
.type	_ZN4core3ptr47drop_in_place$LT$core..cell..BorrowMutError$GT$17h40d368baf1631f2fE,%function
.code	16
.thumb_func
_ZN4core3ptr47drop_in_place$LT$core..cell..BorrowMutError$GT$17h40d368baf1631f2fE:
.fnstart
bx	lr
.Lfunc_end63:
.size	_ZN4core3ptr47drop_in_place$LT$core..cell..BorrowMutError$GT$17h40d368baf1631f2fE, .Lfunc_end63-_ZN4core3ptr47drop_in_place$LT$core..cell..BorrowMutError$GT$17h40d368baf1631f2fE
.cantunwind
.fnend

.section	".text._ZN4core3ptr49drop_in_place$LT$lisp..lisp..val..ClosureArgs$GT$17h8fa271c1e97a5ff3E","ax",%progbits
.p2align	1
.type	_ZN4core3ptr49drop_in_place$LT$lisp..lisp..val..ClosureArgs$GT$17h8fa271c1e97a5ff3E,%function
.code	16
.thumb_func
_ZN4core3ptr49drop_in_place$LT$lisp..lisp..val..ClosureArgs$GT$17h8fa271c1e97a5ff3E:
.fnstart
.save	{r4, r6, r7, lr}
push	{r4, r6, r7, lr}
.setfp	r7, sp, #8
add	r7, sp, #8
mov	r4, r0
ldr	r0, [r0]
cmp	r0, #0
beq	.LBB64_2
mov	r0, r4
bl	_ZN4core3ptr87drop_in_place$LT$lisp..parm..heap..vec..Vec$LT$lisp..parm..heap..string..String$GT$$GT$17h72f8ffaab59504caE
adds	r4, #12
mov	r0, r4
bl	_ZN4core3ptr120drop_in_place$LT$core..result..Result$LT$$RF$lisp..parm..heap..string..String$C$lisp..parm..heap..string..String$GT$$GT$17h0f56d1dcda09fd03E
pop	{r4, r6, r7, pc}
.LBB64_2:
adds	r0, r4, #4
bl	_ZN4core3ptr53drop_in_place$LT$lisp..parm..heap..string..String$GT$17h255b53872c1e8529E
pop	{r4, r6, r7, pc}
.Lfunc_end64:
.size	_ZN4core3ptr49drop_in_place$LT$lisp..lisp..val..ClosureArgs$GT$17h8fa271c1e97a5ff3E, .Lfunc_end64-_ZN4core3ptr49drop_in_place$LT$lisp..lisp..val..ClosureArgs$GT$17h8fa271c1e97a5ff3E
.cantunwind
.fnend

.section	".text._ZN4core3ptr53drop_in_place$LT$lisp..lisp..val..LispListBuilder$GT$17h93e030bd379a099cE","ax",%progbits
.p2align	1
.type	_ZN4core3ptr53drop_in_place$LT$lisp..lisp..val..LispListBuilder$GT$17h93e030bd379a099cE,%function
.code	16
.thumb_func
_ZN4core3ptr53drop_in_place$LT$lisp..lisp..val..LispListBuilder$GT$17h93e030bd379a099cE:
.fnstart
ldr	r1, [r0]
ldr	r2, [r1]
subs	r2, r2, #1
beq	.LBB65_2
str	r2, [r1]
.LBB65_2:
ldr	r1, [r0, #4]
ldr	r2, [r1]
subs	r2, r2, #1
beq	.LBB65_4
str	r2, [r1]
.LBB65_4:
ldr	r0, [r0, #8]
ldr	r1, [r0]
subs	r1, r1, #1
beq	.LBB65_6
str	r1, [r0]
.LBB65_6:
bx	lr
.Lfunc_end65:
.size	_ZN4core3ptr53drop_in_place$LT$lisp..lisp..val..LispListBuilder$GT$17h93e030bd379a099cE, .Lfunc_end65-_ZN4core3ptr53drop_in_place$LT$lisp..lisp..val..LispListBuilder$GT$17h93e030bd379a099cE
.cantunwind
.fnend

.section	".text._ZN4core3ptr53drop_in_place$LT$lisp..parm..heap..string..String$GT$17h255b53872c1e8529E","ax",%progbits
.p2align	1
.type	_ZN4core3ptr53drop_in_place$LT$lisp..parm..heap..string..String$GT$17h255b53872c1e8529E,%function
.code	16
.thumb_func
_ZN4core3ptr53drop_in_place$LT$lisp..parm..heap..string..String$GT$17h255b53872c1e8529E:
.fnstart
.save	{r4, r6, r7, lr}
push	{r4, r6, r7, lr}
.setfp	r7, sp, #8
add	r7, sp, #8
mov	r4, r0
.LBB66_1:
mov	r0, r4
bl	_ZN4lisp4parm4heap3vec12Vec$LT$T$GT$3pop17h4a6481edd982d6aeE
movs	r1, #17
lsls	r1, r1, #16
cmp	r0, r1
bne	.LBB66_1
pop	{r4, r6, r7, pc}
.Lfunc_end66:
.size	_ZN4core3ptr53drop_in_place$LT$lisp..parm..heap..string..String$GT$17h255b53872c1e8529E, .Lfunc_end66-_ZN4core3ptr53drop_in_place$LT$lisp..parm..heap..string..String$GT$17h255b53872c1e8529E
.cantunwind
.fnend

.section	".text._ZN4core3ptr87drop_in_place$LT$lisp..parm..heap..vec..Vec$LT$lisp..parm..heap..string..String$GT$$GT$17h72f8ffaab59504caE","ax",%progbits
.p2align	1
.type	_ZN4core3ptr87drop_in_place$LT$lisp..parm..heap..vec..Vec$LT$lisp..parm..heap..string..String$GT$$GT$17h72f8ffaab59504caE,%function
.code	16
.thumb_func
_ZN4core3ptr87drop_in_place$LT$lisp..parm..heap..vec..Vec$LT$lisp..parm..heap..string..String$GT$$GT$17h72f8ffaab59504caE:
.fnstart
.save	{r4, r5, r6, r7, lr}
push	{r4, r5, r6, r7, lr}
.setfp	r7, sp, #12
add	r7, sp, #12
.pad	#20
sub	sp, #20
mov	r4, r0
ldr	r6, [r0, #8]
ldr	r0, [r0]
str	r0, [sp, #4]
.LBB67_1:
cmp	r6, #0
beq	.LBB67_3
subs	r6, r6, #1
str	r6, [r4, #8]
movs	r0, #12
muls	r0, r6, r0
ldr	r1, [sp, #4]
adds	r0, r1, r0
add	r1, sp, #8
ldm	r0!, {r2, r3, r5}
stm	r1!, {r2, r3, r5}
ldr	r5, [sp, #8]
b	.LBB67_4
.LBB67_3:
movs	r6, #0
str	r6, [sp, #8]
mov	r5, r6
.LBB67_4:
add	r0, sp, #8
bl	_ZN4core3ptr120drop_in_place$LT$core..result..Result$LT$$RF$lisp..parm..heap..string..String$C$lisp..parm..heap..string..String$GT$$GT$17h0f56d1dcda09fd03E
cmp	r5, #0
bne	.LBB67_1
add	sp, #20
pop	{r4, r5, r6, r7, pc}
.Lfunc_end67:
.size	_ZN4core3ptr87drop_in_place$LT$lisp..parm..heap..vec..Vec$LT$lisp..parm..heap..string..String$GT$$GT$17h72f8ffaab59504caE, .Lfunc_end67-_ZN4core3ptr87drop_in_place$LT$lisp..parm..heap..vec..Vec$LT$lisp..parm..heap..string..String$GT$$GT$17h72f8ffaab59504caE
.cantunwind
.fnend

.section	".text._ZN4core4char7methods22_$LT$impl$u20$char$GT$8to_digit17h0a32d5e36bbf30f3E","ax",%progbits
.p2align	1
.type	_ZN4core4char7methods22_$LT$impl$u20$char$GT$8to_digit17h0a32d5e36bbf30f3E,%function
.code	16
.thumb_func
_ZN4core4char7methods22_$LT$impl$u20$char$GT$8to_digit17h0a32d5e36bbf30f3E:
.fnstart
mov	r3, r0
subs	r3, #48
cmp	r1, #10
bls	.LBB68_3
cmp	r3, #10
bhs	.LBB68_4
movs	r0, #1
mov	r2, r3
b	.LBB68_9
.LBB68_3:
mov	r2, r3
b	.LBB68_6
.LBB68_4:
mov	r2, r0
movs	r0, #32
orrs	r2, r0
subs	r2, #97
adds	r2, #10
blo	.LBB68_6
movs	r0, #0
mvns	r2, r0
.LBB68_6:
cmp	r2, r1
blo	.LBB68_8
movs	r0, #0
b	.LBB68_9
.LBB68_8:
movs	r0, #1
.LBB68_9:
mov	r1, r2
bx	lr
.Lfunc_end68:
.size	_ZN4core4char7methods22_$LT$impl$u20$char$GT$8to_digit17h0a32d5e36bbf30f3E, .Lfunc_end68-_ZN4core4char7methods22_$LT$impl$u20$char$GT$8to_digit17h0a32d5e36bbf30f3E
.cantunwind
.fnend

.section	.text._ZN4core4iter6traits8iterator8Iterator2eq17h484a72898bd40c34E,"ax",%progbits
.p2align	1
.type	_ZN4core4iter6traits8iterator8Iterator2eq17h484a72898bd40c34E,%function
.code	16
.thumb_func
_ZN4core4iter6traits8iterator8Iterator2eq17h484a72898bd40c34E:
.fnstart
.save	{r4, r5, r6, r7, lr}
push	{r4, r5, r6, r7, lr}
.setfp	r7, sp, #12
add	r7, sp, #12
.pad	#20
sub	sp, #20
str	r1, [sp, #8]
mov	r1, r0
ldr	r4, [r2]
ldr	r0, [r2, #4]
str	r0, [sp, #12]
ldr	r0, [r2, #8]
str	r0, [sp, #4]
movs	r0, #17
lsls	r3, r0, #16
.LBB69_1:
ldr	r0, [sp, #8]
cmp	r1, r0
beq	.LBB69_8
ldm	r1!, {r5}
ldr	r2, [sp, #12]
cmp	r4, r2
mov	r0, r3
beq	.LBB69_4
ldrb	r0, [r4]
str	r1, [sp, #16]
ldr	r1, [sp, #4]
mov	r6, r3
blx	r1
ldr	r1, [sp, #16]
mov	r3, r6
adds	r2, r4, #1
.LBB69_4:
cmp	r0, r5
bne	.LBB69_6
cmp	r0, r3
mov	r4, r2
bne	.LBB69_1
.LBB69_6:
movs	r1, #0
cmp	r0, r3
beq	.LBB69_12
cmp	r0, r5
beq	.LBB69_9
b	.LBB69_12
.LBB69_8:
mov	r2, r4
.LBB69_9:
ldr	r0, [sp, #12]
cmp	r2, r0
beq	.LBB69_11
ldrb	r0, [r2]
ldr	r1, [sp, #4]
blx	r1
movs	r1, #0
b	.LBB69_12
.LBB69_11:
movs	r1, #1
.LBB69_12:
mov	r0, r1
add	sp, #20
pop	{r4, r5, r6, r7, pc}
.Lfunc_end69:
.size	_ZN4core4iter6traits8iterator8Iterator2eq17h484a72898bd40c34E, .Lfunc_end69-_ZN4core4iter6traits8iterator8Iterator2eq17h484a72898bd40c34E
.cantunwind
.fnend

.section	".text._ZN4core4iter8adapters8peekable17Peekable$LT$I$GT$4peek17h7b50f0e7a63906bdE","ax",%progbits
.p2align	1
.type	_ZN4core4iter8adapters8peekable17Peekable$LT$I$GT$4peek17h7b50f0e7a63906bdE,%function
.code	16
.thumb_func
_ZN4core4iter8adapters8peekable17Peekable$LT$I$GT$4peek17h7b50f0e7a63906bdE:
.fnstart
.save	{r4, r5, r7, lr}
push	{r4, r5, r7, lr}
.setfp	r7, sp, #8
add	r7, sp, #8
mov	r4, r0
ldr	r1, [r0, #16]
movs	r0, #17
lsls	r5, r0, #16
adds	r0, r5, #1
cmp	r1, r0
bne	.LBB70_2
mov	r0, r4
bl	_ZN110_$LT$core..iter..adapters..enumerate..Enumerate$LT$I$GT$$u20$as$u20$core..iter..traits..iterator..Iterator$GT$4next17h18f19f2e8c0ef0d6E
str	r0, [r4, #12]
str	r1, [r4, #16]
.LBB70_2:
cmp	r1, r5
beq	.LBB70_4
adds	r4, #12
b	.LBB70_5
.LBB70_4:
movs	r4, #0
.LBB70_5:
mov	r0, r4
pop	{r4, r5, r7, pc}
.Lfunc_end70:
.size	_ZN4core4iter8adapters8peekable17Peekable$LT$I$GT$4peek17h7b50f0e7a63906bdE, .Lfunc_end70-_ZN4core4iter8adapters8peekable17Peekable$LT$I$GT$4peek17h7b50f0e7a63906bdE
.cantunwind
.fnend

.section	".text._ZN4core5slice5index74_$LT$impl$u20$core..ops..index..Index$LT$I$GT$$u20$for$u20$$u5b$T$u5d$$GT$5index17h9a80c4fdc5b72cc1E","ax",%progbits
.p2align	1
.type	_ZN4core5slice5index74_$LT$impl$u20$core..ops..index..Index$LT$I$GT$$u20$for$u20$$u5b$T$u5d$$GT$5index17h9a80c4fdc5b72cc1E,%function
.code	16
.thumb_func
_ZN4core5slice5index74_$LT$impl$u20$core..ops..index..Index$LT$I$GT$$u20$for$u20$$u5b$T$u5d$$GT$5index17h9a80c4fdc5b72cc1E:
.fnstart
.save	{r4, r6, r7, lr}
push	{r4, r6, r7, lr}
.setfp	r7, sp, #8
add	r7, sp, #8
mov	r4, r2
ldr	r2, [r7, #8]
cmp	r3, r4
blo	.LBB71_3
cmp	r3, r1
bhi	.LBB71_4
subs	r1, r3, r4
lsls	r2, r4, #2
adds	r0, r0, r2
pop	{r4, r6, r7, pc}
.LBB71_3:
mov	r0, r4
mov	r1, r3
bl	_ZN4core5slice5index22slice_index_order_fail17hbe05a531dba6b2aeE
.inst.n	0xdefe
.LBB71_4:
mov	r0, r3
bl	_ZN4core5slice5index24slice_end_index_len_fail17h03fdfe6ab5c8af91E
.inst.n	0xdefe
.Lfunc_end71:
.size	_ZN4core5slice5index74_$LT$impl$u20$core..ops..index..Index$LT$I$GT$$u20$for$u20$$u5b$T$u5d$$GT$5index17h9a80c4fdc5b72cc1E, .Lfunc_end71-_ZN4core5slice5index74_$LT$impl$u20$core..ops..index..Index$LT$I$GT$$u20$for$u20$$u5b$T$u5d$$GT$5index17h9a80c4fdc5b72cc1E
.cantunwind
.fnend

.section	".text._ZN4core6option15Option$LT$T$GT$5ok_or17h9b991bed529c338aE","ax",%progbits
.p2align	1
.type	_ZN4core6option15Option$LT$T$GT$5ok_or17h9b991bed529c338aE,%function
.code	16
.thumb_func
_ZN4core6option15Option$LT$T$GT$5ok_or17h9b991bed529c338aE:
.fnstart
.save	{r4, r6, r7, lr}
push	{r4, r6, r7, lr}
.setfp	r7, sp, #8
add	r7, sp, #8
cmp	r1, #0
beq	.LBB72_2
movs	r3, #0
str	r3, [r0]
str	r1, [r0, #4]
mov	r0, r2
bl	_ZN4core3ptr53drop_in_place$LT$lisp..parm..heap..string..String$GT$17h255b53872c1e8529E
pop	{r4, r6, r7, pc}
.LBB72_2:
ldm	r2!, {r1, r3, r4}
stm	r0!, {r1, r3, r4}
pop	{r4, r6, r7, pc}
.Lfunc_end72:
.size	_ZN4core6option15Option$LT$T$GT$5ok_or17h9b991bed529c338aE, .Lfunc_end72-_ZN4core6option15Option$LT$T$GT$5ok_or17h9b991bed529c338aE
.cantunwind
.fnend

.section	".text._ZN4core6option15Option$LT$T$GT$6unwrap17h1987e68de7664eb3E","ax",%progbits
.p2align	2
.type	_ZN4core6option15Option$LT$T$GT$6unwrap17h1987e68de7664eb3E,%function
.code	16
.thumb_func
_ZN4core6option15Option$LT$T$GT$6unwrap17h1987e68de7664eb3E:
.fnstart
.save	{r7, lr}
push	{r7, lr}
.setfp	r7, sp
add	r7, sp, #0
cmp	r0, #0
beq	.LBB73_2
mov	r0, r1
pop	{r7, pc}
.LBB73_2:
ldr	r0, .LCPI73_0
movs	r1, #43
bl	_ZN4core9panicking5panic17hbf7c4b9a7b4ce29dE
.inst.n	0xdefe
.p2align	2
.LCPI73_0:
.long	.L__unnamed_67
.Lfunc_end73:
.size	_ZN4core6option15Option$LT$T$GT$6unwrap17h1987e68de7664eb3E, .Lfunc_end73-_ZN4core6option15Option$LT$T$GT$6unwrap17h1987e68de7664eb3E
.cantunwind
.fnend

.section	".text._ZN66_$LT$core..option..Option$LT$T$GT$$u20$as$u20$core..hash..Hash$GT$4hash17hfd6fd978b1350b68E","ax",%progbits
.p2align	2
.type	_ZN66_$LT$core..option..Option$LT$T$GT$$u20$as$u20$core..hash..Hash$GT$4hash17hfd6fd978b1350b68E,%function
.code	16
.thumb_func
_ZN66_$LT$core..option..Option$LT$T$GT$$u20$as$u20$core..hash..Hash$GT$4hash17hfd6fd978b1350b68E:
.fnstart
.save	{r4, r5, r7, lr}
push	{r4, r5, r7, lr}
.setfp	r7, sp, #8
add	r7, sp, #8
ldr	r2, [r0]
subs	r3, r2, #1
mov	r4, r2
sbcs	r4, r3
ldr	r3, [r1]
movs	r5, #27
rors	r3, r5
eors	r3, r4
ldr	r4, .LCPI74_0
muls	r4, r3, r4
str	r4, [r1]
cmp	r2, #0
beq	.LBB74_2
bl	_ZN69_$LT$lisp..parm..heap..string..String$u20$as$u20$core..hash..Hash$GT$4hash17h66dc31e4cbcbc71fE
.LBB74_2:
pop	{r4, r5, r7, pc}
.p2align	2
.LCPI74_0:
.long	656542357
.Lfunc_end74:
.size	_ZN66_$LT$core..option..Option$LT$T$GT$$u20$as$u20$core..hash..Hash$GT$4hash17hfd6fd978b1350b68E, .Lfunc_end74-_ZN66_$LT$core..option..Option$LT$T$GT$$u20$as$u20$core..hash..Hash$GT$4hash17hfd6fd978b1350b68E
.cantunwind
.fnend

.section	".text._ZN68_$LT$core..option..Option$LT$T$GT$$u20$as$u20$core..clone..Clone$GT$5clone17he5634341463a3fd3E","ax",%progbits
.p2align	1
.type	_ZN68_$LT$core..option..Option$LT$T$GT$$u20$as$u20$core..clone..Clone$GT$5clone17he5634341463a3fd3E,%function
.code	16
.thumb_func
_ZN68_$LT$core..option..Option$LT$T$GT$$u20$as$u20$core..clone..Clone$GT$5clone17he5634341463a3fd3E:
.fnstart
.save	{r7, lr}
push	{r7, lr}
.setfp	r7, sp
add	r7, sp, #0
ldr	r2, [r1]
cmp	r2, #0
beq	.LBB75_2
bl	_ZN71_$LT$lisp..parm..heap..string..String$u20$as$u20$core..clone..Clone$GT$5clone17hcfb3fae59d8e5176E
pop	{r7, pc}
.LBB75_2:
movs	r1, #0
str	r1, [r0]
pop	{r7, pc}
.Lfunc_end75:
.size	_ZN68_$LT$core..option..Option$LT$T$GT$$u20$as$u20$core..clone..Clone$GT$5clone17he5634341463a3fd3E, .Lfunc_end75-_ZN68_$LT$core..option..Option$LT$T$GT$$u20$as$u20$core..clone..Clone$GT$5clone17he5634341463a3fd3E
.cantunwind
.fnend

.section	".text._ZN81_$LT$core..str..iter..Chars$u20$as$u20$core..iter..traits..iterator..Iterator$GT$4next17h89cbe918d5553988E","ax",%progbits
.p2align	1
.type	_ZN81_$LT$core..str..iter..Chars$u20$as$u20$core..iter..traits..iterator..Iterator$GT$4next17h89cbe918d5553988E,%function
.code	16
.thumb_func
_ZN81_$LT$core..str..iter..Chars$u20$as$u20$core..iter..traits..iterator..Iterator$GT$4next17h89cbe918d5553988E:
.fnstart
.save	{r4, r5, r6, r7, lr}
push	{r4, r5, r6, r7, lr}
.setfp	r7, sp, #12
add	r7, sp, #12
mov	r1, r0
ldr	r2, [r0]
ldr	r0, [r0, #4]
cmp	r2, r0
beq	.LBB76_3
adds	r0, r2, #1
str	r0, [r1]
ldrb	r0, [r2]
sxtb	r3, r0
cmp	r3, #0
bmi	.LBB76_4
pop	{r4, r5, r6, r7, pc}
.LBB76_3:
movs	r0, #17
lsls	r0, r0, #16
pop	{r4, r5, r6, r7, pc}
.LBB76_4:
adds	r3, r2, #2
str	r3, [r1]
ldrb	r5, [r2, #1]
movs	r4, #63
ands	r5, r4
movs	r3, #31
ands	r3, r0
cmp	r0, #223
bls	.LBB76_7
adds	r6, r2, #3
str	r6, [r1]
ldrb	r6, [r2, #2]
ands	r6, r4
lsls	r5, r5, #6
adds	r5, r5, r6
cmp	r0, #240
blo	.LBB76_8
adds	r0, r2, #4
str	r0, [r1]
ldrb	r0, [r2, #3]
ands	r0, r4
lsls	r1, r5, #6
adds	r0, r1, r0
lsls	r1, r3, #29
lsrs	r1, r1, #11
adds	r0, r0, r1
pop	{r4, r5, r6, r7, pc}
.LBB76_7:
lsls	r0, r3, #6
adds	r0, r0, r5
pop	{r4, r5, r6, r7, pc}
.LBB76_8:
lsls	r0, r3, #12
adds	r0, r5, r0
pop	{r4, r5, r6, r7, pc}
.Lfunc_end76:
.size	_ZN81_$LT$core..str..iter..Chars$u20$as$u20$core..iter..traits..iterator..Iterator$GT$4next17h89cbe918d5553988E, .Lfunc_end76-_ZN81_$LT$core..str..iter..Chars$u20$as$u20$core..iter..traits..iterator..Iterator$GT$4next17h89cbe918d5553988E
.cantunwind
.fnend

.section	.text._ZN4lisp4lisp3env9SymbolMap3set17ha9aeca042720f9e9E,"ax",%progbits
.p2align	1
.type	_ZN4lisp4lisp3env9SymbolMap3set17ha9aeca042720f9e9E,%function
.code	16
.thumb_func
_ZN4lisp4lisp3env9SymbolMap3set17ha9aeca042720f9e9E:
.fnstart
.save	{r4, r5, r6, r7, lr}
push	{r4, r5, r6, r7, lr}
.setfp	r7, sp, #12
add	r7, sp, #12
.pad	#60
sub	sp, #60
str	r2, [sp, #16]
mov	r6, r0
add	r5, sp, #20
mov	r0, r5
ldm	r1!, {r2, r3, r4}
stm	r0!, {r2, r3, r4}
mov	r0, r5
bl	_ZN4lisp4parm4heap6budmap25BudMap$LT$Key$C$Value$GT$4hash17h08a720ac3d2620f0E
mov	r2, r0
mov	r4, r1
str	r5, [sp]
add	r0, sp, #32
str	r6, [sp, #12]
mov	r1, r6
mov	r6, r2
mov	r3, r4
bl	_ZN4lisp4parm4heap6budmap25BudMap$LT$Key$C$Value$GT$9get_entry17hf0e9a7568cdbefbdE
ldr	r5, [sp, #36]
cmp	r5, #2
bne	.LBB77_2
add	r2, sp, #20
ldm	r2, {r0, r1, r2}
str	r4, [sp, #36]
str	r6, [sp, #32]
add	r3, sp, #44
stm	r3!, {r0, r1, r2}
ldr	r0, [sp, #12]
str	r0, [sp, #40]
add	r0, sp, #32
ldr	r1, [sp, #16]
bl	_ZN4lisp4parm4heap6budmap30VacantEntry$LT$Key$C$Value$GT$6insert17h29fde8be8ce617e4E
b	.LBB77_4
.LBB77_2:
ldr	r0, [sp, #40]
str	r0, [sp, #8]
ldr	r6, [sp, #44]
ldr	r4, [sp, #32]
add	r0, sp, #20
bl	_ZN4core3ptr53drop_in_place$LT$lisp..parm..heap..string..String$GT$17h255b53872c1e8529E
str	r4, [sp, #40]
str	r6, [sp, #36]
ldr	r0, [sp, #8]
str	r0, [sp, #48]
str	r5, [sp, #44]
ldr	r0, [sp, #12]
str	r0, [sp, #32]
add	r0, sp, #32
ldr	r1, [sp, #16]
bl	_ZN4lisp4parm4heap6budmap32OccupiedEntry$LT$Key$C$Value$GT$7replace17hfaa5524d871a81feE
ldr	r1, [r0]
subs	r1, r1, #1
beq	.LBB77_4
str	r1, [r0]
.LBB77_4:
add	sp, #60
pop	{r4, r5, r6, r7, pc}
.Lfunc_end77:
.size	_ZN4lisp4lisp3env9SymbolMap3set17ha9aeca042720f9e9E, .Lfunc_end77-_ZN4lisp4lisp3env9SymbolMap3set17ha9aeca042720f9e9E
.cantunwind
.fnend

.section	.text._ZN4lisp4lisp3env9SchemeEnv3get17h4b604ae4e90ffc1cE,"ax",%progbits
.p2align	2
.type	_ZN4lisp4lisp3env9SchemeEnv3get17h4b604ae4e90ffc1cE,%function
.code	16
.thumb_func
_ZN4lisp4lisp3env9SchemeEnv3get17h4b604ae4e90ffc1cE:
.fnstart
.save	{r4, r5, r6, r7, lr}
push	{r4, r5, r6, r7, lr}
.setfp	r7, sp, #12
add	r7, sp, #12
.pad	#36
sub	sp, #36
ldr	r0, [r0]
str	r1, [sp]
str	r1, [sp, #28]
str	r0, [sp, #4]
ldr	r0, [r0, #16]
str	r0, [sp, #24]
cmp	r0, #0
beq	.LBB78_8
ldr	r4, [sp, #4]
ldr	r0, [r4, #8]
str	r0, [sp, #20]
ldr	r0, [sp]
bl	_ZN4lisp4parm4heap6budmap25BudMap$LT$Key$C$Value$GT$4hash17h08a720ac3d2620f0E
mov	r6, r0
str	r1, [sp, #16]
ldr	r3, [r4, #28]
ldr	r0, [r4, #32]
ands	r0, r6
ldr	r2, [r4, #20]
str	r6, [sp, #8]
str	r2, [sp, #12]
.LBB78_2:
cmp	r0, r3
bhs	.LBB78_13
lsls	r5, r0, #3
ldr	r0, [r2, r5]
adds	r1, r0, #1
beq	.LBB78_8
ldr	r1, [sp, #24]
cmp	r0, r1
bhs	.LBB78_14
movs	r1, #24
muls	r1, r0, r1
ldr	r2, [sp, #20]
ldr	r0, [r2, r1]
eors	r0, r6
adds	r4, r2, r1
ldr	r1, [r4, #4]
ldr	r2, [sp, #16]
eors	r1, r2
orrs	r1, r0
bne	.LBB78_7
mov	r0, r4
adds	r0, #8
str	r0, [sp, #32]
add	r0, sp, #32
add	r1, sp, #28
mov	r6, r3
bl	_ZN4core3cmp5impls69_$LT$impl$u20$core..cmp..PartialEq$LT$$RF$B$GT$$u20$for$u20$$RF$A$GT$2eq17hbfb8b3e3e3cacb84E
mov	r3, r6
ldr	r6, [sp, #8]
cmp	r0, #0
bne	.LBB78_11
.LBB78_7:
ldr	r2, [sp, #12]
adds	r0, r2, r5
ldr	r0, [r0, #4]
adds	r1, r0, #1
bne	.LBB78_2
.LBB78_8:
ldr	r0, [sp, #4]
ldr	r1, [r0, #40]
cmp	r1, #0
beq	.LBB78_10
adds	r0, #44
ldr	r1, [sp]
bl	_ZN4lisp4lisp3env9SchemeEnv3get17h4b604ae4e90ffc1cE
b	.LBB78_12
.LBB78_10:
movs	r0, #0
b	.LBB78_12
.LBB78_11:
ldr	r1, [r4, #20]
ldr	r0, [r1]
adds	r0, r0, #1
str	r0, [r1]
movs	r0, #1
.LBB78_12:
add	sp, #36
pop	{r4, r5, r6, r7, pc}
.LBB78_13:
ldr	r2, .LCPI78_0
mov	r1, r3
b	.LBB78_15
.LBB78_14:
ldr	r2, .LCPI78_1
ldr	r1, [sp, #24]
.LBB78_15:
bl	_ZN4core9panicking18panic_bounds_check17h1ca984f63bd01bd3E
.inst.n	0xdefe
.p2align	2
.LCPI78_0:
.long	.L__unnamed_51
.LCPI78_1:
.long	.L__unnamed_52
.Lfunc_end78:
.size	_ZN4lisp4lisp3env9SchemeEnv3get17h4b604ae4e90ffc1cE, .Lfunc_end78-_ZN4lisp4lisp3env9SchemeEnv3get17h4b604ae4e90ffc1cE
.cantunwind
.fnend

.section	.text._ZN4lisp4lisp3env9SchemeEnv7set_new17h51bc5a0f06fd5278E,"ax",%progbits
.p2align	1
.type	_ZN4lisp4lisp3env9SchemeEnv7set_new17h51bc5a0f06fd5278E,%function
.code	16
.thumb_func
_ZN4lisp4lisp3env9SchemeEnv7set_new17h51bc5a0f06fd5278E:
.fnstart
.save	{r4, r5, r6, r7, lr}
push	{r4, r5, r6, r7, lr}
.setfp	r7, sp, #12
add	r7, sp, #12
.pad	#20
sub	sp, #20
str	r2, [sp, #4]
mov	r5, r1
bl	_ZN4lisp12Prc$LT$T$GT$10borrow_mut17h92d1b754b9bd4d6dE
str	r1, [sp]
add	r1, sp, #8
mov	r2, r1
ldm	r5!, {r3, r4, r6}
stm	r2!, {r3, r4, r6}
ldr	r2, [sp, #4]
bl	_ZN4lisp4lisp3env9SymbolMap3set17ha9aeca042720f9e9E
ldr	r1, [sp]
ldr	r0, [r1]
adds	r0, r0, #1
str	r0, [r1]
add	sp, #20
pop	{r4, r5, r6, r7, pc}
.Lfunc_end79:
.size	_ZN4lisp4lisp3env9SchemeEnv7set_new17h51bc5a0f06fd5278E, .Lfunc_end79-_ZN4lisp4lisp3env9SchemeEnv7set_new17h51bc5a0f06fd5278E
.cantunwind
.fnend

.section	.text._ZN4lisp4lisp3env9SchemeEnv7set_rec17h19ad6f3de5182366E,"ax",%progbits
.p2align	1
.type	_ZN4lisp4lisp3env9SchemeEnv7set_rec17h19ad6f3de5182366E,%function
.code	16
.thumb_func
_ZN4lisp4lisp3env9SchemeEnv7set_rec17h19ad6f3de5182366E:
.fnstart
.save	{r4, r5, r6, r7, lr}
push	{r4, r5, r6, r7, lr}
.setfp	r7, sp, #12
add	r7, sp, #12
.pad	#124
sub	sp, #124
str	r3, [sp, #20]
str	r2, [sp, #32]
mov	r6, r1
bl	_ZN4lisp12Prc$LT$T$GT$10borrow_mut17h92d1b754b9bd4d6dE
mov	r5, r0
str	r1, [sp, #28]
mov	r0, r6
bl	_ZN4lisp4parm4heap6budmap25BudMap$LT$Key$C$Value$GT$4hash17h08a720ac3d2620f0E
mov	r2, r0
mov	r4, r1
str	r6, [sp]
add	r0, sp, #96
str	r5, [sp, #36]
mov	r1, r5
str	r2, [sp, #24]
mov	r3, r4
bl	_ZN4lisp4parm4heap6budmap25BudMap$LT$Key$C$Value$GT$9get_entry17hf0e9a7568cdbefbdE
ldr	r0, [sp, #100]
cmp	r0, #2
bne	.LBB80_5
add	r5, sp, #40
mov	r0, r5
adds	r0, #20
mov	r1, r6
bl	_ZN71_$LT$lisp..parm..heap..string..String$u20$as$u20$core..clone..Clone$GT$5clone17hcfb3fae59d8e5176E
str	r4, [sp, #52]
ldr	r0, [sp, #24]
str	r0, [sp, #48]
movs	r0, #1
str	r0, [sp, #8]
str	r0, [sp, #40]
ldr	r4, [sp, #36]
str	r4, [sp, #56]
adds	r5, #8
add	r0, sp, #72
movs	r2, #24
str	r5, [sp, #12]
mov	r1, r5
bl	__aeabi_memcpy
ldr	r0, [r4, #32]
rsbs	r3, r0, #0
adcs	r3, r0
cmp	r0, #0
str	r6, [sp, #16]
beq	.LBB80_9
str	r3, [sp, #24]
add	r1, sp, #96
mov	r2, r1
ldm	r6!, {r3, r4, r5}
stm	r2!, {r3, r4, r5}
ldr	r0, [sp, #36]
adds	r0, #36
movs	r5, #0
ldr	r2, [sp, #32]
mov	r3, r5
bl	_ZN4lisp4lisp3env9SchemeEnv7set_rec17h19ad6f3de5182366E
mov	r4, r1
subs	r2, r0, #1
rsbs	r1, r2, #0
adcs	r1, r2
cmp	r0, #1
bne	.LBB80_11
ldr	r0, [sp, #20]
cmp	r0, #0
beq	.LBB80_11
add	r6, sp, #96
movs	r2, #24
mov	r0, r6
ldr	r1, [sp, #12]
bl	__aeabi_memcpy
mov	r0, r6
mov	r1, r4
bl	_ZN4lisp4parm4heap6budmap30VacantEntry$LT$Key$C$Value$GT$6insert17h29fde8be8ce617e4E
b	.LBB80_14
.LBB80_5:
ldr	r1, [sp, #104]
str	r1, [sp, #60]
str	r0, [sp, #56]
ldr	r0, [sp, #96]
str	r0, [sp, #52]
ldr	r0, [sp, #108]
str	r0, [sp, #48]
ldr	r0, [sp, #36]
str	r0, [sp, #44]
movs	r5, #0
str	r5, [sp, #40]
add	r0, sp, #40
adds	r1, r0, #4
add	r4, sp, #96
movs	r2, #20
mov	r0, r4
bl	__aeabi_memcpy
mov	r0, r4
ldr	r1, [sp, #32]
bl	_ZN4lisp4parm4heap6budmap32OccupiedEntry$LT$Key$C$Value$GT$7replace17hfaa5524d871a81feE
ldr	r1, [r0]
movs	r3, #1
subs	r1, r1, #1
beq	.LBB80_7
str	r1, [r0]
.LBB80_7:
mov	r0, r6
.LBB80_8:
ldr	r2, [sp, #28]
b	.LBB80_15
.LBB80_9:
ldr	r5, [sp, #8]
ldr	r0, [sp, #20]
cmp	r0, #0
beq	.LBB80_12
add	r5, sp, #96
movs	r2, #24
mov	r0, r5
ldr	r1, [sp, #12]
mov	r4, r3
bl	__aeabi_memcpy
mov	r0, r5
ldr	r1, [sp, #32]
bl	_ZN4lisp4parm4heap6budmap30VacantEntry$LT$Key$C$Value$GT$6insert17h29fde8be8ce617e4E
mov	r3, r4
movs	r5, #0
ldr	r0, [sp, #16]
b	.LBB80_8
.LBB80_11:
mov	r5, r1
b	.LBB80_13
.LBB80_12:
str	r3, [sp, #24]
ldr	r4, [sp, #32]
.LBB80_13:
add	r0, sp, #72
adds	r0, #12
bl	_ZN4core3ptr53drop_in_place$LT$lisp..parm..heap..string..String$GT$17h255b53872c1e8529E
.LBB80_14:
ldr	r0, [sp, #16]
ldr	r2, [sp, #28]
ldr	r3, [sp, #24]
.LBB80_15:
ldr	r1, [r2]
adds	r1, r1, #1
str	r1, [r2]
cmp	r3, #0
beq	.LBB80_17
bl	_ZN4core3ptr53drop_in_place$LT$lisp..parm..heap..string..String$GT$17h255b53872c1e8529E
.LBB80_17:
mov	r0, r5
mov	r1, r4
add	sp, #124
pop	{r4, r5, r6, r7, pc}
.Lfunc_end80:
.size	_ZN4lisp4lisp3env9SchemeEnv7set_rec17h19ad6f3de5182366E, .Lfunc_end80-_ZN4lisp4lisp3env9SchemeEnv7set_rec17h19ad6f3de5182366E
.cantunwind
.fnend

.section	.text._ZN4lisp4lisp3env9SchemeEnv3set17h96598a60942bfc2cE,"ax",%progbits
.p2align	1
.type	_ZN4lisp4lisp3env9SchemeEnv3set17h96598a60942bfc2cE,%function
.code	16
.thumb_func
_ZN4lisp4lisp3env9SchemeEnv3set17h96598a60942bfc2cE:
.fnstart
.save	{r4, r5, r6, r7, lr}
push	{r4, r5, r6, r7, lr}
.setfp	r7, sp, #12
add	r7, sp, #12
.pad	#20
sub	sp, #20
str	r2, [sp, #4]
add	r2, sp, #8
mov	r3, r2
ldm	r1!, {r4, r5, r6}
stm	r3!, {r4, r5, r6}
movs	r3, #1
mov	r1, r2
ldr	r2, [sp, #4]
bl	_ZN4lisp4lisp3env9SchemeEnv7set_rec17h19ad6f3de5182366E
cmp	r0, #0
beq	.LBB81_3
ldr	r0, [r1]
subs	r0, r0, #1
beq	.LBB81_3
str	r0, [r1]
.LBB81_3:
add	sp, #20
pop	{r4, r5, r6, r7, pc}
.Lfunc_end81:
.size	_ZN4lisp4lisp3env9SchemeEnv3set17h96598a60942bfc2cE, .Lfunc_end81-_ZN4lisp4lisp3env9SchemeEnv3set17h96598a60942bfc2cE
.cantunwind
.fnend

.section	.text._ZN4lisp4lisp3env9SchemeEnv10make_child17hc002d9f406dacb2fE,"ax",%progbits
.p2align	1
.type	_ZN4lisp4lisp3env9SchemeEnv10make_child17hc002d9f406dacb2fE,%function
.code	16
.thumb_func
_ZN4lisp4lisp3env9SchemeEnv10make_child17hc002d9f406dacb2fE:
.fnstart
.save	{r4, r5, r6, r7, lr}
push	{r4, r5, r6, r7, lr}
.setfp	r7, sp, #12
add	r7, sp, #12
ldr	r2, [r0]
ldr	r0, [r2]
adds	r0, r0, #1
str	r0, [r2]
movs	r0, #48
ldrb	r3, [r2, r0]
movs	r0, #1
lsls	r4, r0, #16
ldr	r1, [r4]
movs	r5, #52
str	r5, [r1]
mov	r6, r1
adds	r6, #56
str	r6, [r4]
strb	r3, [r1, r5]
movs	r3, #0
mvns	r4, r3
str	r3, [r1, #32]
str	r3, [r1, #36]
str	r4, [r1, #40]
str	r0, [r1, #44]
str	r2, [r1, #48]
str	r3, [r1, #28]
movs	r2, #4
str	r2, [r1, #24]
str	r3, [r1, #20]
str	r3, [r1, #16]
movs	r2, #8
str	r2, [r1, #12]
str	r3, [r1, #8]
str	r0, [r1, #4]
adds	r0, r1, #4
pop	{r4, r5, r6, r7, pc}
.Lfunc_end82:
.size	_ZN4lisp4lisp3env9SchemeEnv10make_child17hc002d9f406dacb2fE, .Lfunc_end82-_ZN4lisp4lisp3env9SchemeEnv10make_child17hc002d9f406dacb2fE
.cantunwind
.fnend

.section	".text._ZN4lisp4lisp4eval8builtins83_$LT$impl$u20$core..default..Default$u20$for$u20$lisp..lisp..env..SchemeEnvData$GT$7default17h803a4a99af49c8e1E","ax",%progbits
.p2align	2
.type	_ZN4lisp4lisp4eval8builtins83_$LT$impl$u20$core..default..Default$u20$for$u20$lisp..lisp..env..SchemeEnvData$GT$7default17h803a4a99af49c8e1E,%function
.code	16
.thumb_func
_ZN4lisp4lisp4eval8builtins83_$LT$impl$u20$core..default..Default$u20$for$u20$lisp..lisp..env..SchemeEnvData$GT$7default17h803a4a99af49c8e1E:
.fnstart
.save	{r4, r5, r6, r7, lr}
push	{r4, r5, r6, r7, lr}
.setfp	r7, sp, #12
add	r7, sp, #12
.pad	#76
sub	sp, #76
str	r0, [sp, #8]
movs	r0, #0
str	r0, [sp, #4]
str	r0, [sp, #68]
str	r0, [sp, #64]
str	r0, [sp, #60]
movs	r1, #4
str	r1, [sp, #36]
str	r1, [sp, #56]
str	r0, [sp, #52]
str	r0, [sp, #48]
movs	r1, #8
str	r1, [sp, #16]
str	r1, [sp, #44]
mvns	r0, r0
str	r0, [sp, #72]
add	r5, sp, #44
ldr	r1, .LCPI83_0
movs	r2, #3
str	r2, [sp, #40]
ldr	r3, .LCPI83_1
ldr	r4, .LCPI83_2
mov	r0, r5
blx	r4
ldr	r1, .LCPI83_3
movs	r6, #1
str	r6, [sp, #12]
ldr	r3, .LCPI83_4
mov	r0, r5
mov	r2, r6
blx	r4
ldr	r1, .LCPI83_5
ldr	r3, .LCPI83_6
mov	r0, r5
mov	r2, r6
blx	r4
ldr	r1, .LCPI83_7
ldr	r3, .LCPI83_8
mov	r0, r5
mov	r2, r6
blx	r4
ldr	r1, .LCPI83_9
ldr	r3, .LCPI83_10
mov	r0, r5
mov	r2, r6
blx	r4
ldr	r1, .LCPI83_11
ldr	r3, .LCPI83_12
mov	r0, r5
ldr	r6, [sp, #36]
mov	r2, r6
blx	r4
ldr	r1, .LCPI83_13
ldr	r3, .LCPI83_14
mov	r0, r5
ldr	r2, [sp, #40]
ldr	r4, .LCPI83_2
blx	r4
ldr	r1, .LCPI83_15
ldr	r3, .LCPI83_16
mov	r0, r5
mov	r2, r6
ldr	r6, .LCPI83_2
blx	r6
ldr	r1, .LCPI83_17
movs	r2, #5
str	r2, [sp, #32]
ldr	r3, .LCPI83_18
mov	r0, r5
blx	r6
ldr	r1, .LCPI83_19
movs	r2, #6
str	r2, [sp, #24]
ldr	r3, .LCPI83_20
mov	r0, r5
blx	r6
ldr	r1, .LCPI83_21
ldr	r3, .LCPI83_22
mov	r0, r5
ldr	r2, [sp, #40]
blx	r6
ldr	r1, .LCPI83_23
ldr	r3, .LCPI83_24
mov	r0, r5
ldr	r4, [sp, #36]
mov	r2, r4
blx	r6
ldr	r1, .LCPI83_25
ldr	r3, .LCPI83_26
mov	r0, r5
mov	r2, r4
blx	r6
mov	r4, r6
ldr	r1, .LCPI83_27
movs	r2, #7
str	r2, [sp, #28]
ldr	r6, .LCPI83_28
mov	r0, r5
mov	r3, r6
blx	r4
ldr	r1, .LCPI83_29
mov	r0, r5
ldr	r4, [sp, #32]
mov	r2, r4
mov	r3, r6
ldr	r6, .LCPI83_2
blx	r6
ldr	r1, .LCPI83_30
movs	r2, #9
str	r2, [sp, #20]
ldr	r3, .LCPI83_31
mov	r0, r5
ldr	r6, .LCPI83_2
blx	r6
ldr	r1, .LCPI83_32
mov	r0, r5
ldr	r2, [sp, #28]
ldr	r3, .LCPI83_31
ldr	r6, .LCPI83_2
blx	r6
ldr	r1, .LCPI83_33
ldr	r3, .LCPI83_34
mov	r0, r5
mov	r2, r4
ldr	r4, .LCPI83_2
blx	r4
ldr	r1, .LCPI83_35
ldr	r3, .LCPI83_36
mov	r0, r5
ldr	r2, [sp, #28]
blx	r4
ldr	r1, .LCPI83_37
ldr	r3, .LCPI83_38
mov	r0, r5
ldr	r2, [sp, #36]
blx	r4
ldr	r1, .LCPI83_39
movs	r2, #11
ldr	r3, .LCPI83_40
mov	r0, r5
blx	r4
ldr	r1, .LCPI83_41
ldr	r3, .LCPI83_42
mov	r0, r5
ldr	r2, [sp, #40]
blx	r4
ldr	r1, .LCPI83_43
ldr	r3, .LCPI83_44
mov	r0, r5
ldr	r2, [sp, #24]
blx	r4
ldr	r1, .LCPI83_45
ldr	r3, .LCPI83_46
mov	r0, r5
ldr	r6, [sp, #12]
mov	r2, r6
blx	r4
ldr	r1, .LCPI83_47
ldr	r3, .LCPI83_48
mov	r0, r5
mov	r2, r6
blx	r4
ldr	r1, .LCPI83_49
movs	r6, #2
ldr	r3, .LCPI83_50
mov	r0, r5
mov	r2, r6
blx	r4
ldr	r1, .LCPI83_51
ldr	r3, .LCPI83_52
mov	r0, r5
ldr	r2, [sp, #12]
blx	r4
ldr	r1, .LCPI83_53
ldr	r3, .LCPI83_54
mov	r0, r5
mov	r2, r6
blx	r4
ldr	r1, .LCPI83_55
ldr	r3, .LCPI83_56
mov	r0, r5
ldr	r6, [sp, #20]
mov	r2, r6
blx	r4
ldr	r1, .LCPI83_57
ldr	r3, .LCPI83_58
mov	r0, r5
mov	r2, r6
blx	r4
ldr	r1, .LCPI83_59
ldr	r3, .LCPI83_60
mov	r0, r5
ldr	r6, [sp, #32]
mov	r2, r6
blx	r4
ldr	r1, .LCPI83_61
ldr	r3, .LCPI83_62
mov	r0, r5
ldr	r2, [sp, #16]
blx	r4
ldr	r1, .LCPI83_63
ldr	r3, .LCPI83_64
mov	r0, r5
mov	r2, r6
blx	r4
ldr	r1, .LCPI83_65
ldr	r3, .LCPI83_66
mov	r0, r5
mov	r2, r6
blx	r4
ldr	r1, .LCPI83_67
ldr	r3, .LCPI83_68
mov	r0, r5
mov	r2, r6
blx	r4
ldr	r1, .LCPI83_69
ldr	r3, .LCPI83_70
mov	r0, r5
ldr	r2, [sp, #28]
blx	r4
ldr	r1, .LCPI83_71
ldr	r3, .LCPI83_72
mov	r0, r5
mov	r2, r6
blx	r4
ldr	r1, .LCPI83_73
ldr	r3, .LCPI83_74
mov	r0, r5
mov	r2, r6
blx	r4
ldr	r1, .LCPI83_75
ldr	r3, .LCPI83_76
mov	r0, r5
ldr	r2, [sp, #40]
blx	r4
ldr	r1, .LCPI83_77
ldr	r3, .LCPI83_78
mov	r0, r5
ldr	r4, [sp, #24]
mov	r2, r4
ldr	r6, .LCPI83_2
blx	r6
ldr	r1, .LCPI83_79
ldr	r3, .LCPI83_80
mov	r0, r5
mov	r2, r4
ldr	r4, .LCPI83_2
blx	r4
ldr	r1, .LCPI83_81
ldr	r3, .LCPI83_82
mov	r0, r5
ldr	r2, [sp, #40]
blx	r4
ldr	r1, .LCPI83_83
ldr	r3, .LCPI83_84
mov	r0, r5
ldr	r2, [sp, #36]
bl	_ZN4lisp4lisp4eval8builtins83_$LT$impl$u20$core..default..Default$u20$for$u20$lisp..lisp..env..SchemeEnvData$GT$7default13builtin_macro17hf46a03e6e9861edaE
ldr	r1, .LCPI83_85
ldr	r3, .LCPI83_86
mov	r0, r5
ldr	r2, [sp, #24]
blx	r4
ldr	r1, .LCPI83_87
movs	r2, #13
ldr	r3, .LCPI83_88
mov	r0, r5
blx	r4
ldr	r1, .LCPI83_89
movs	r2, #10
ldr	r3, .LCPI83_90
mov	r0, r5
blx	r4
ldr	r1, .LCPI83_91
ldr	r3, .LCPI83_92
mov	r0, r5
ldr	r2, [sp, #32]
blx	r4
ldr	r1, .LCPI83_93
ldr	r3, .LCPI83_94
mov	r0, r5
ldr	r6, [sp, #20]
mov	r2, r6
ldr	r4, .LCPI83_2
blx	r4
ldr	r1, .LCPI83_95
ldr	r3, .LCPI83_96
mov	r0, r5
ldr	r2, [sp, #36]
ldr	r4, .LCPI83_2
blx	r4
ldr	r1, .LCPI83_97
ldr	r3, .LCPI83_98
mov	r0, r5
ldr	r2, [sp, #32]
blx	r4
ldr	r1, .LCPI83_99
ldr	r3, .LCPI83_100
mov	r0, r5
mov	r2, r6
blx	r4
ldr	r1, .LCPI83_101
ldr	r3, .LCPI83_102
mov	r0, r5
ldr	r2, [sp, #16]
mov	r6, r2
blx	r4
ldr	r1, .LCPI83_103
ldr	r3, .LCPI83_104
mov	r0, r5
ldr	r2, [sp, #20]
blx	r4
ldr	r1, .LCPI83_105
ldr	r3, .LCPI83_106
mov	r0, r5
mov	r2, r6
blx	r4
ldr	r1, .LCPI83_107
ldr	r3, .LCPI83_108
mov	r0, r5
ldr	r2, [sp, #32]
bl	_ZN4lisp4lisp4eval8builtins83_$LT$impl$u20$core..default..Default$u20$for$u20$lisp..lisp..env..SchemeEnvData$GT$7default13builtin_macro17hf46a03e6e9861edaE
ldr	r1, .LCPI83_109
ldr	r3, .LCPI83_110
mov	r0, r5
ldr	r2, [sp, #28]
blx	r4
movs	r2, #32
ldr	r4, [sp, #8]
mov	r0, r4
mov	r1, r5
bl	__aeabi_memcpy
movs	r0, #40
ldr	r1, [sp, #4]
strb	r1, [r4, r0]
str	r1, [r4, #32]
add	sp, #76
pop	{r4, r5, r6, r7, pc}
.p2align	2
.LCPI83_0:
.long	.L__unnamed_68
.LCPI83_1:
.long	_ZN4core3ops8function6FnOnce9call_once17h97906424d68f7b6bE
.LCPI83_2:
.long	_ZN4lisp4lisp4eval8builtins83_$LT$impl$u20$core..default..Default$u20$for$u20$lisp..lisp..env..SchemeEnvData$GT$7default7builtin17hd2ebfdfc7e62d892E
.LCPI83_3:
.long	.L__unnamed_45
.LCPI83_4:
.long	_ZN4core3ops8function6FnOnce9call_once17had5a922d9c70d1e5E
.LCPI83_5:
.long	.L__unnamed_21
.LCPI83_6:
.long	_ZN4core3ops8function6FnOnce9call_once17h83de7b40e1bf6466E
.LCPI83_7:
.long	.L__unnamed_27
.LCPI83_8:
.long	_ZN4core3ops8function6FnOnce9call_once17h865f6d26c51a9660E
.LCPI83_9:
.long	.L__unnamed_25
.LCPI83_10:
.long	_ZN4core3ops8function6FnOnce9call_once17h862e6e31a267cb3aE
.LCPI83_11:
.long	.L__unnamed_69
.LCPI83_12:
.long	_ZN4core3ops8function6FnOnce9call_once17h206f493a8e56730cE
.LCPI83_13:
.long	.L__unnamed_4
.LCPI83_14:
.long	_ZN4core3ops8function6FnOnce9call_once17h1738c576a4e29863E
.LCPI83_15:
.long	.L__unnamed_17
.LCPI83_16:
.long	_ZN4core3ops8function6FnOnce9call_once17h73a12c079da3ca25E
.LCPI83_17:
.long	.L__unnamed_7
.LCPI83_18:
.long	_ZN4core3ops8function6FnOnce9call_once17h3480cc5fff554984E
.LCPI83_19:
.long	.L__unnamed_30
.LCPI83_20:
.long	_ZN4core3ops8function6FnOnce9call_once17h9774d049f9db4a4cE
.LCPI83_21:
.long	.L__unnamed_9
.LCPI83_22:
.long	_ZN4core3ops8function6FnOnce9call_once17h431597bb0e22d9d1E
.LCPI83_23:
.long	.L__unnamed_56
.LCPI83_24:
.long	_ZN4core3ops8function6FnOnce9call_once17hd87be7a0c3df7defE
.LCPI83_25:
.long	.L__unnamed_70
.LCPI83_26:
.long	_ZN4core3ops8function6FnOnce9call_once17he413dd11e509748dE
.LCPI83_27:
.long	.L__unnamed_71
.LCPI83_28:
.long	_ZN4core3ops8function6FnOnce9call_once17h6e5c88d7a057dc1bE
.LCPI83_29:
.long	.L__unnamed_72
.LCPI83_30:
.long	.L__unnamed_73
.LCPI83_31:
.long	_ZN4core3ops8function6FnOnce9call_once17hdae24a6434b0c24bE
.LCPI83_32:
.long	.L__unnamed_74
.LCPI83_33:
.long	.L__unnamed_75
.LCPI83_34:
.long	_ZN4core3ops8function6FnOnce9call_once17h84af7dac81ec9f5dE
.LCPI83_35:
.long	.L__unnamed_76
.LCPI83_36:
.long	_ZN4core3ops8function6FnOnce9call_once17h78b68555c514c5ddE
.LCPI83_37:
.long	.L__unnamed_77
.LCPI83_38:
.long	_ZN4core3ops8function6FnOnce9call_once17habc34f73216e7969E
.LCPI83_39:
.long	.L__unnamed_78
.LCPI83_40:
.long	_ZN4core3ops8function6FnOnce9call_once17h6fa063bed9273eeaE
.LCPI83_41:
.long	.L__unnamed_79
.LCPI83_42:
.long	_ZN4core3ops8function6FnOnce9call_once17h62b52d68b90051d8E
.LCPI83_43:
.long	.L__unnamed_80
.LCPI83_44:
.long	_ZN4core3ops8function6FnOnce9call_once17h12fa83c056ab195aE
.LCPI83_45:
.long	.L__unnamed_49
.LCPI83_46:
.long	_ZN4core3ops8function6FnOnce9call_once17hc5b48ebdcb3e261bE
.LCPI83_47:
.long	.L__unnamed_8
.LCPI83_48:
.long	_ZN4core3ops8function6FnOnce9call_once17h3bbc3a21f5defe92E
.LCPI83_49:
.long	.L__unnamed_64
.LCPI83_50:
.long	_ZN4core3ops8function6FnOnce9call_once17hf2a4e6ec997c6e56E
.LCPI83_51:
.long	.L__unnamed_6
.LCPI83_52:
.long	_ZN4core3ops8function6FnOnce9call_once17h31a70982b22b695bE
.LCPI83_53:
.long	.L__unnamed_14
.LCPI83_54:
.long	_ZN4core3ops8function6FnOnce9call_once17h6bf0cb1ecf8bab56E
.LCPI83_55:
.long	.L__unnamed_20
.LCPI83_56:
.long	_ZN4core3ops8function6FnOnce9call_once17h8046cd776c3fdf8eE
.LCPI83_57:
.long	.L__unnamed_10
.LCPI83_58:
.long	_ZN4core3ops8function6FnOnce9call_once17h44e0e205eb7fa965E
.LCPI83_59:
.long	.L__unnamed_5
.LCPI83_60:
.long	_ZN4core3ops8function6FnOnce9call_once17h301f8e153ed1433fE
.LCPI83_61:
.long	.L__unnamed_28
.LCPI83_62:
.long	_ZN4core3ops8function6FnOnce9call_once17h86ec2c8cbe0cd4d6E
.LCPI83_63:
.long	.L__unnamed_81
.LCPI83_64:
.long	_ZN4core3ops8function6FnOnce9call_once17h7d662472a83f6ed1E
.LCPI83_65:
.long	.L__unnamed_19
.LCPI83_66:
.long	_ZN4core3ops8function6FnOnce9call_once17h94382fe0ef856d66E
.LCPI83_67:
.long	.L__unnamed_2
.LCPI83_68:
.long	_ZN4core3ops8function6FnOnce9call_once17h044855f76a72e44cE
.LCPI83_69:
.long	.L__unnamed_24
.LCPI83_70:
.long	_ZN4core3ops8function6FnOnce9call_once17h85578e6d478fcc88E
.LCPI83_71:
.long	.L__unnamed_61
.LCPI83_72:
.long	_ZN4core3ops8function6FnOnce9call_once17h09fb0e486432b624E
.LCPI83_73:
.long	.L__unnamed_60
.LCPI83_74:
.long	_ZN4core3ops8function6FnOnce9call_once17hedc7773063a8d3cfE
.LCPI83_75:
.long	.L__unnamed_32
.LCPI83_76:
.long	_ZN4core3ops8function6FnOnce9call_once17ha96189e617ad68e5E
.LCPI83_77:
.long	.L__unnamed_29
.LCPI83_78:
.long	_ZN4core3ops8function6FnOnce9call_once17h8c51ad2d9bd032a9E
.LCPI83_79:
.long	.L__unnamed_48
.LCPI83_80:
.long	_ZN4core3ops8function6FnOnce9call_once17hbe84ff3d8a364248E
.LCPI83_81:
.long	.L__unnamed_55
.LCPI83_82:
.long	_ZN4core3ops8function6FnOnce9call_once17hd4c4cac9516568abE
.LCPI83_83:
.long	.L__unnamed_18
.LCPI83_84:
.long	_ZN4core3ops8function6FnOnce9call_once17h75207a36ba8da024E
.LCPI83_85:
.long	.L__unnamed_31
.LCPI83_86:
.long	_ZN4core3ops8function6FnOnce9call_once17ha0015b3f8c6ff363E
.LCPI83_87:
.long	.L__unnamed_11
.LCPI83_88:
.long	_ZN4core3ops8function6FnOnce9call_once17h470891a58205c890E
.LCPI83_89:
.long	.L__unnamed_59
.LCPI83_90:
.long	_ZN4core3ops8function6FnOnce9call_once17he8dc64cfef41ecdbE
.LCPI83_91:
.long	.L__unnamed_82
.LCPI83_92:
.long	_ZN4core3ops8function6FnOnce9call_once17ha8bc68491d23c514E
.LCPI83_93:
.long	.L__unnamed_47
.LCPI83_94:
.long	_ZN4core3ops8function6FnOnce9call_once17haf2adb921959622eE
.LCPI83_95:
.long	.L__unnamed_46
.LCPI83_96:
.long	_ZN4core3ops8function6FnOnce9call_once17hae289980d2e1583bE
.LCPI83_97:
.long	.L__unnamed_1
.LCPI83_98:
.long	_ZN4core3ops8function6FnOnce9call_once17h00d1ccf0aae34382E
.LCPI83_99:
.long	.L__unnamed_65
.LCPI83_100:
.long	_ZN4core3ops8function6FnOnce9call_once17hfd3ddb2d5fb43613E
.LCPI83_101:
.long	.L__unnamed_50
.LCPI83_102:
.long	_ZN4core3ops8function6FnOnce9call_once17hc6a595067be35b78E
.LCPI83_103:
.long	.L__unnamed_12
.LCPI83_104:
.long	_ZN4core3ops8function6FnOnce9call_once17h5e65a08b75e54d22E
.LCPI83_105:
.long	.L__unnamed_63
.LCPI83_106:
.long	_ZN4core3ops8function6FnOnce9call_once17hef03ec3c9f15e97eE
.LCPI83_107:
.long	.L__unnamed_83
.LCPI83_108:
.long	_ZN4core3ops8function6FnOnce9call_once17h5fb337d0e89c57ceE
.LCPI83_109:
.long	.L__unnamed_54
.LCPI83_110:
.long	_ZN4core3ops8function6FnOnce9call_once17hcaea78a4ad41b739E
.Lfunc_end83:
.size	_ZN4lisp4lisp4eval8builtins83_$LT$impl$u20$core..default..Default$u20$for$u20$lisp..lisp..env..SchemeEnvData$GT$7default17h803a4a99af49c8e1E, .Lfunc_end83-_ZN4lisp4lisp4eval8builtins83_$LT$impl$u20$core..default..Default$u20$for$u20$lisp..lisp..env..SchemeEnvData$GT$7default17h803a4a99af49c8e1E
.cantunwind
.fnend

.section	".text._ZN4lisp4lisp4eval8builtins83_$LT$impl$u20$core..default..Default$u20$for$u20$lisp..lisp..env..SchemeEnvData$GT$7default7builtin17hd2ebfdfc7e62d892E","ax",%progbits
.p2align	1
.type	_ZN4lisp4lisp4eval8builtins83_$LT$impl$u20$core..default..Default$u20$for$u20$lisp..lisp..env..SchemeEnvData$GT$7default7builtin17hd2ebfdfc7e62d892E,%function
.code	16
.thumb_func
_ZN4lisp4lisp4eval8builtins83_$LT$impl$u20$core..default..Default$u20$for$u20$lisp..lisp..env..SchemeEnvData$GT$7default7builtin17hd2ebfdfc7e62d892E:
.fnstart
.save	{r4, r5, r6, r7, lr}
push	{r4, r5, r6, r7, lr}
.setfp	r7, sp, #12
add	r7, sp, #12
.pad	#44
sub	sp, #44
str	r3, [sp, #12]
mov	r5, r2
mov	r6, r1
str	r0, [sp, #16]
add	r0, sp, #20
str	r0, [sp, #8]
bl	_ZN87_$LT$lisp..parm..heap..string..String$u20$as$u20$core..convert..From$LT$$RF$str$GT$$GT$4from17h25a10eb48256cf6dE
add	r4, sp, #32
mov	r0, r4
mov	r1, r6
mov	r2, r5
bl	_ZN87_$LT$lisp..parm..heap..string..String$u20$as$u20$core..convert..From$LT$$RF$str$GT$$GT$4from17h25a10eb48256cf6dE
movs	r1, #1
lsls	r2, r1, #16
ldr	r0, [r2]
movs	r3, #64
str	r3, [sp, #4]
str	r3, [r0]
mov	r5, r0
adds	r5, #68
str	r5, [r2]
movs	r2, #0
str	r2, [r0, #8]
str	r1, [r0, #4]
mov	r1, r0
adds	r1, #12
ldm	r4!, {r3, r5, r6}
stm	r1!, {r3, r5, r6}
ldr	r1, [sp, #4]
strb	r2, [r0, r1]
movs	r1, #2
str	r1, [r0, #48]
ldr	r1, [sp, #12]
str	r1, [r0, #24]
adds	r2, r0, #4
ldr	r0, [sp, #16]
ldr	r1, [sp, #8]
bl	_ZN4lisp4lisp3env9SymbolMap3set17ha9aeca042720f9e9E
add	sp, #44
pop	{r4, r5, r6, r7, pc}
.Lfunc_end84:
.size	_ZN4lisp4lisp4eval8builtins83_$LT$impl$u20$core..default..Default$u20$for$u20$lisp..lisp..env..SchemeEnvData$GT$7default7builtin17hd2ebfdfc7e62d892E, .Lfunc_end84-_ZN4lisp4lisp4eval8builtins83_$LT$impl$u20$core..default..Default$u20$for$u20$lisp..lisp..env..SchemeEnvData$GT$7default7builtin17hd2ebfdfc7e62d892E
.cantunwind
.fnend

.section	".text._ZN4lisp4lisp4eval8builtins83_$LT$impl$u20$core..default..Default$u20$for$u20$lisp..lisp..env..SchemeEnvData$GT$7default13builtin_macro17hf46a03e6e9861edaE","ax",%progbits
.p2align	1
.type	_ZN4lisp4lisp4eval8builtins83_$LT$impl$u20$core..default..Default$u20$for$u20$lisp..lisp..env..SchemeEnvData$GT$7default13builtin_macro17hf46a03e6e9861edaE,%function
.code	16
.thumb_func
_ZN4lisp4lisp4eval8builtins83_$LT$impl$u20$core..default..Default$u20$for$u20$lisp..lisp..env..SchemeEnvData$GT$7default13builtin_macro17hf46a03e6e9861edaE:
.fnstart
.save	{r4, r5, r6, r7, lr}
push	{r4, r5, r6, r7, lr}
.setfp	r7, sp, #12
add	r7, sp, #12
.pad	#44
sub	sp, #44
str	r3, [sp, #12]
mov	r5, r2
mov	r6, r1
str	r0, [sp, #16]
add	r0, sp, #20
str	r0, [sp, #8]
bl	_ZN87_$LT$lisp..parm..heap..string..String$u20$as$u20$core..convert..From$LT$$RF$str$GT$$GT$4from17h25a10eb48256cf6dE
add	r4, sp, #32
mov	r0, r4
mov	r1, r6
mov	r2, r5
bl	_ZN87_$LT$lisp..parm..heap..string..String$u20$as$u20$core..convert..From$LT$$RF$str$GT$$GT$4from17h25a10eb48256cf6dE
movs	r1, #1
lsls	r2, r1, #16
ldr	r0, [r2]
movs	r3, #64
str	r3, [sp, #4]
str	r3, [r0]
mov	r5, r0
adds	r5, #68
str	r5, [r2]
movs	r2, #0
str	r2, [r0, #8]
str	r1, [r0, #4]
mov	r2, r0
adds	r2, #12
ldm	r4!, {r3, r5, r6}
stm	r2!, {r3, r5, r6}
ldr	r2, [sp, #4]
strb	r1, [r0, r2]
movs	r1, #2
str	r1, [r0, #48]
ldr	r1, [sp, #12]
str	r1, [r0, #24]
adds	r2, r0, #4
ldr	r0, [sp, #16]
ldr	r1, [sp, #8]
bl	_ZN4lisp4lisp3env9SymbolMap3set17ha9aeca042720f9e9E
add	sp, #44
pop	{r4, r5, r6, r7, pc}
.Lfunc_end85:
.size	_ZN4lisp4lisp4eval8builtins83_$LT$impl$u20$core..default..Default$u20$for$u20$lisp..lisp..env..SchemeEnvData$GT$7default13builtin_macro17hf46a03e6e9861edaE, .Lfunc_end85-_ZN4lisp4lisp4eval8builtins83_$LT$impl$u20$core..default..Default$u20$for$u20$lisp..lisp..env..SchemeEnvData$GT$7default13builtin_macro17hf46a03e6e9861edaE
.cantunwind
.fnend

.section	".text._ZN4lisp4lisp4eval8builtins83_$LT$impl$u20$core..default..Default$u20$for$u20$lisp..lisp..env..SchemeEnvData$GT$7default9list_star17h84dc23c5c284b4e7E","ax",%progbits
.p2align	2
.type	_ZN4lisp4lisp4eval8builtins83_$LT$impl$u20$core..default..Default$u20$for$u20$lisp..lisp..env..SchemeEnvData$GT$7default9list_star17h84dc23c5c284b4e7E,%function
.code	16
.thumb_func
_ZN4lisp4lisp4eval8builtins83_$LT$impl$u20$core..default..Default$u20$for$u20$lisp..lisp..env..SchemeEnvData$GT$7default9list_star17h84dc23c5c284b4e7E:
.fnstart
.save	{r4, r5, r6, r7, lr}
push	{r4, r5, r6, r7, lr}
.setfp	r7, sp, #12
add	r7, sp, #12
.pad	#28
sub	sp, #28
mov	r5, r1
str	r0, [sp]
movs	r0, #1
lsls	r0, r0, #16
ldr	r1, [r0]
movs	r2, #64
str	r2, [r1]
mov	r2, r1
adds	r2, #68
str	r2, [r0]
movs	r0, #8
str	r0, [r1, #48]
movs	r4, #0
str	r4, [r1, #12]
str	r4, [r1, #8]
movs	r0, #3
str	r0, [r1, #4]
adds	r0, r1, #4
str	r0, [sp, #12]
str	r0, [sp, #8]
str	r0, [sp, #4]
ldr	r6, .LCPI86_0
.LBB86_1:
ldr	r0, [r5]
cmp	r0, #1
bne	.LBB86_14
ldr	r0, [r5, #8]
ldr	r1, [r0, #44]
cmp	r1, #8
bne	.LBB86_4
ldr	r0, [r0, #8]
cmp	r0, #0
beq	.LBB86_6
.LBB86_4:
ldr	r1, [r5, #4]
ldr	r0, [r1]
adds	r0, r0, #1
str	r0, [r1]
add	r0, sp, #4
bl	_ZN4lisp4lisp3val15LispListBuilder4push17h6b8263f332e9e854E
ldr	r1, [r5, #8]
adds	r1, #8
add	r0, sp, #16
movs	r3, #5
mov	r2, r6
bl	_ZN4lisp4lisp3val7LispVal11expect_list17h294e3e58bbc02a2aE
ldr	r5, [sp, #20]
ldr	r0, [sp, #16]
cmp	r0, #0
beq	.LBB86_1
ldr	r1, [sp, #24]
b	.LBB86_8
.LBB86_6:
ldr	r1, [r5, #4]
adds	r1, #8
add	r0, sp, #16
ldr	r2, .LCPI86_0
movs	r3, #5
bl	_ZN4lisp4lisp3val7LispVal11expect_list17h294e3e58bbc02a2aE
ldr	r0, [sp, #16]
cmp	r0, #0
beq	.LBB86_9
ldr	r1, [sp, #24]
ldr	r5, [sp, #20]
.LBB86_8:
ldr	r2, [sp]
stm	r2!, {r0, r5}
str	r1, [r2]
add	r0, sp, #4
bl	_ZN4core3ptr53drop_in_place$LT$lisp..lisp..val..LispListBuilder$GT$17h93e030bd379a099cE
b	.LBB86_15
.LBB86_9:
ldr	r6, [sp, #20]
.LBB86_10:
ldr	r0, [r6]
cmp	r0, #0
beq	.LBB86_14
ldr	r1, [r6, #4]
ldr	r6, [r6, #8]
ldr	r5, [r6, #44]
ldr	r0, [r1]
adds	r0, r0, #1
str	r0, [r1]
add	r0, sp, #4
bl	_ZN4lisp4lisp3val15LispListBuilder4push17h6b8263f332e9e854E
cmp	r5, #8
beq	.LBB86_13
ldr	r6, .LCPI86_1
b	.LBB86_10
.LBB86_13:
adds	r6, #8
b	.LBB86_10
.LBB86_14:
add	r1, sp, #4
add	r0, sp, #16
mov	r2, r0
ldm	r1!, {r3, r5, r6}
stm	r2!, {r3, r5, r6}
bl	_ZN4lisp4lisp3val15LispListBuilder6finish17hb1784b4a5d2bfc82E
ldr	r1, [sp]
str	r4, [r1]
str	r0, [r1, #4]
.LBB86_15:
add	sp, #28
pop	{r4, r5, r6, r7, pc}
.p2align	2
.LCPI86_0:
.long	.L__unnamed_61
.LCPI86_1:
.long	.L__unnamed_22
.Lfunc_end86:
.size	_ZN4lisp4lisp4eval8builtins83_$LT$impl$u20$core..default..Default$u20$for$u20$lisp..lisp..env..SchemeEnvData$GT$7default9list_star17h84dc23c5c284b4e7E, .Lfunc_end86-_ZN4lisp4lisp4eval8builtins83_$LT$impl$u20$core..default..Default$u20$for$u20$lisp..lisp..env..SchemeEnvData$GT$7default9list_star17h84dc23c5c284b4e7E
.cantunwind
.fnend

.section	".text._ZN4lisp4lisp4eval8builtins83_$LT$impl$u20$core..default..Default$u20$for$u20$lisp..lisp..env..SchemeEnvData$GT$7default9make_hash17h30c88d665b51e740E","ax",%progbits
.p2align	2
.type	_ZN4lisp4lisp4eval8builtins83_$LT$impl$u20$core..default..Default$u20$for$u20$lisp..lisp..env..SchemeEnvData$GT$7default9make_hash17h30c88d665b51e740E,%function
.code	16
.thumb_func
_ZN4lisp4lisp4eval8builtins83_$LT$impl$u20$core..default..Default$u20$for$u20$lisp..lisp..env..SchemeEnvData$GT$7default9make_hash17h30c88d665b51e740E:
.fnstart
.save	{r4, r5, r6, r7, lr}
push	{r4, r5, r6, r7, lr}
.setfp	r7, sp, #12
add	r7, sp, #12
.pad	#76
sub	sp, #76
mov	r6, r3
str	r2, [sp, #8]
mov	r4, r0
movs	r2, #0
str	r2, [sp, #44]
str	r2, [sp, #40]
str	r2, [sp, #36]
movs	r0, #4
str	r0, [sp, #32]
str	r2, [sp, #28]
str	r2, [sp, #24]
movs	r0, #8
str	r0, [sp, #20]
str	r2, [sp, #12]
mvns	r0, r2
str	r0, [sp, #48]
mov	r0, r1
bl	_ZN4lisp4lisp3val8LispList5get_n17h3a20a97af4f6f221E
ldr	r5, [r7, #8]
cmp	r0, #0
beq	.LBB87_3
ldr	r1, [r0]
adds	r1, #8
add	r0, sp, #64
mov	r2, r6
mov	r3, r5
bl	_ZN4lisp4lisp3val7LispVal11expect_list17h294e3e58bbc02a2aE
ldr	r0, [sp, #64]
cmp	r0, #0
beq	.LBB87_6
ldr	r1, [sp, #68]
ldr	r2, [sp, #72]
stm	r4!, {r0, r1, r2}
b	.LBB87_4
.LBB87_3:
mov	r0, r4
mov	r1, r6
mov	r2, r5
bl	_ZN87_$LT$lisp..parm..heap..string..String$u20$as$u20$core..convert..From$LT$$RF$str$GT$$GT$4from17h25a10eb48256cf6dE
.LBB87_4:
add	r0, sp, #20
bl	_ZN4core3ptr146drop_in_place$LT$lisp..parm..heap..budmap..BudMap$LT$lisp..Prc$LT$lisp..lisp..val..LispVal$GT$$C$lisp..Prc$LT$lisp..lisp..val..LispVal$GT$$GT$$GT$17h53d2e16dc112c058E
.LBB87_5:
add	sp, #76
pop	{r4, r5, r6, r7, pc}
.LBB87_6:
str	r4, [sp, #4]
ldr	r4, [sp, #68]
str	r5, [sp, #16]
.LBB87_7:
ldr	r0, [r4]
cmp	r0, #0
beq	.LBB87_16
ldr	r1, [r4, #4]
ldr	r4, [r4, #8]
mov	r2, r6
ldr	r6, [r4, #44]
adds	r1, #8
add	r0, sp, #64
mov	r3, r5
mov	r5, r2
bl	_ZN4lisp4lisp3val7LispVal11expect_list17h294e3e58bbc02a2aE
cmp	r6, #8
beq	.LBB87_10
ldr	r4, .LCPI87_0
b	.LBB87_11
.LBB87_10:
adds	r4, #8
.LBB87_11:
ldr	r1, [sp, #68]
ldr	r0, [sp, #64]
cmp	r0, #0
bne	.LBB87_17
mov	r6, r5
add	r0, sp, #52
mov	r2, r5
ldr	r5, [sp, #16]
mov	r3, r5
bl	_ZN4lisp4lisp3val8LispList11expect_cons17h09878936b3701937E
ldr	r0, [sp, #60]
ldr	r1, [sp, #56]
ldr	r2, [sp, #52]
cmp	r2, #0
bne	.LBB87_18
ldr	r1, [r1]
ldr	r2, [r1]
adds	r2, r2, #1
str	r2, [r1]
ldr	r2, [r0]
ldr	r0, [r2]
adds	r0, r0, #1
str	r0, [r2]
add	r0, sp, #20
bl	_ZN4lisp4parm4heap6budmap25BudMap$LT$Key$C$Value$GT$6insert17hc294ca10f16dea5aE
cmp	r0, #0
beq	.LBB87_7
ldr	r0, [r1]
subs	r0, r0, #1
beq	.LBB87_7
str	r0, [r1]
b	.LBB87_7
.LBB87_16:
movs	r0, #1
lsls	r1, r0, #16
ldr	r4, [r1]
movs	r2, #64
str	r2, [r4]
mov	r2, r4
adds	r2, #68
str	r2, [r1]
ldr	r5, [sp, #12]
str	r5, [r4, #8]
str	r0, [r4, #4]
mov	r0, r4
adds	r0, #12
add	r1, sp, #20
movs	r2, #32
bl	__aeabi_memcpy
movs	r0, #44
ldr	r1, [sp, #8]
strb	r1, [r4, r0]
movs	r0, #11
str	r0, [r4, #48]
adds	r0, r4, #4
ldr	r1, [sp, #4]
str	r5, [r1]
str	r0, [r1, #4]
b	.LBB87_5
.LBB87_17:
ldr	r2, [sp, #72]
ldr	r3, [sp, #4]
stm	r3!, {r0, r1, r2}
b	.LBB87_4
.LBB87_18:
ldr	r3, [sp, #4]
str	r2, [r3]
str	r1, [r3, #4]
str	r0, [r3, #8]
b	.LBB87_4
.p2align	2
.LCPI87_0:
.long	.L__unnamed_22
.Lfunc_end87:
.size	_ZN4lisp4lisp4eval8builtins83_$LT$impl$u20$core..default..Default$u20$for$u20$lisp..lisp..env..SchemeEnvData$GT$7default9make_hash17h30c88d665b51e740E, .Lfunc_end87-_ZN4lisp4lisp4eval8builtins83_$LT$impl$u20$core..default..Default$u20$for$u20$lisp..lisp..env..SchemeEnvData$GT$7default9make_hash17h30c88d665b51e740E
.cantunwind
.fnend

.section	".text._ZN4lisp4lisp4eval4call44_$LT$impl$u20$lisp..lisp..env..SchemeEnv$GT$18eval_nonmacro_call17h82f4437c0349fe67E","ax",%progbits
.p2align	2
.type	_ZN4lisp4lisp4eval4call44_$LT$impl$u20$lisp..lisp..env..SchemeEnv$GT$18eval_nonmacro_call17h82f4437c0349fe67E,%function
.code	16
.thumb_func
_ZN4lisp4lisp4eval4call44_$LT$impl$u20$lisp..lisp..env..SchemeEnv$GT$18eval_nonmacro_call17h82f4437c0349fe67E:
.fnstart
.save	{r4, r5, r6, r7, lr}
push	{r4, r5, r6, r7, lr}
.setfp	r7, sp, #12
add	r7, sp, #12
.pad	#100
sub	sp, #100
mov	r5, r3
mov	r6, r2
ldr	r2, [r2, #36]
cmp	r2, #2
bne	.LBB88_2
ldr	r3, [r6, #12]
mov	r2, r5
blx	r3
b	.LBB88_32
.LBB88_2:
str	r0, [sp]
mov	r0, r6
adds	r0, #48
bl	_ZN4lisp4lisp3env9SchemeEnv10make_child17hc002d9f406dacb2fE
str	r0, [sp, #24]
ldr	r2, [r6, #12]
cmp	r2, #0
beq	.LBB88_10
ldr	r0, [r6, #20]
movs	r3, #12
muls	r3, r0, r3
mov	r1, r6
adds	r1, #24
str	r6, [sp, #8]
str	r1, [sp, #4]
.LBB88_4:
cmp	r3, #0
beq	.LBB88_11
ldr	r0, [r5]
cmp	r0, #0
beq	.LBB88_17
str	r3, [sp, #12]
ldr	r6, [r5, #8]
ldr	r0, [r6, #44]
str	r0, [sp, #20]
mov	r4, r5
add	r5, sp, #28
mov	r0, r5
str	r2, [sp, #16]
mov	r1, r2
bl	_ZN71_$LT$lisp..parm..heap..string..String$u20$as$u20$core..clone..Clone$GT$5clone17hcfb3fae59d8e5176E
ldr	r2, [r4, #4]
ldr	r0, [r2]
adds	r0, r0, #1
str	r0, [r2]
add	r0, sp, #24
mov	r1, r5
bl	_ZN4lisp4lisp3env9SchemeEnv7set_new17h51bc5a0f06fd5278E
ldr	r0, [sp, #20]
cmp	r0, #8
beq	.LBB88_8
ldr	r5, .LCPI88_0
b	.LBB88_9
.LBB88_8:
adds	r6, #8
mov	r5, r6
.LBB88_9:
ldr	r6, [sp, #8]
ldr	r1, [sp, #4]
ldr	r2, [sp, #16]
ldr	r3, [sp, #12]
subs	r3, #12
adds	r2, #12
b	.LBB88_4
.LBB88_10:
mov	r1, r6
adds	r1, #16
add	r0, sp, #88
str	r0, [sp, #20]
bl	_ZN71_$LT$lisp..parm..heap..string..String$u20$as$u20$core..clone..Clone$GT$5clone17hcfb3fae59d8e5176E
add	r4, sp, #28
mov	r0, r4
mov	r1, r5
bl	_ZN64_$LT$lisp..lisp..val..LispList$u20$as$u20$core..clone..Clone$GT$5clone17h687c3353eb908fc9E
movs	r0, #1
lsls	r1, r0, #16
ldr	r5, [r1]
movs	r2, #64
str	r2, [r5]
mov	r2, r5
adds	r2, #68
str	r2, [r1]
movs	r1, #0
str	r1, [r5, #8]
str	r0, [r5, #4]
mov	r0, r5
adds	r0, #12
movs	r2, #36
mov	r1, r4
bl	__aeabi_memcpy
movs	r0, #8
str	r0, [r5, #48]
adds	r2, r5, #4
add	r0, sp, #24
ldr	r1, [sp, #20]
b	.LBB88_19
.LBB88_11:
ldr	r0, [r1]
cmp	r0, #0
beq	.LBB88_21
add	r0, sp, #76
bl	_ZN71_$LT$lisp..parm..heap..string..String$u20$as$u20$core..clone..Clone$GT$5clone17hcfb3fae59d8e5176E
movs	r0, #1
lsls	r0, r0, #16
ldr	r1, [r0]
movs	r2, #64
str	r2, [r1]
mov	r2, r1
adds	r2, #68
str	r2, [r0]
movs	r0, #8
str	r0, [r1, #48]
movs	r0, #0
str	r0, [r1, #12]
str	r0, [r1, #8]
movs	r0, #3
str	r0, [r1, #4]
adds	r0, r1, #4
str	r0, [sp, #96]
str	r0, [sp, #92]
str	r0, [sp, #88]
.LBB88_13:
ldr	r0, [r5]
cmp	r0, #0
beq	.LBB88_18
ldr	r1, [r5, #4]
ldr	r5, [r5, #8]
ldr	r4, [r5, #44]
ldr	r0, [r1]
adds	r0, r0, #1
str	r0, [r1]
add	r0, sp, #88
bl	_ZN4lisp4lisp3val15LispListBuilder4push17h6b8263f332e9e854E
cmp	r4, #8
beq	.LBB88_16
ldr	r5, .LCPI88_0
b	.LBB88_13
.LBB88_16:
adds	r5, #8
b	.LBB88_13
.LBB88_17:
add	r0, sp, #64
ldr	r1, .LCPI88_1
movs	r2, #26
bl	_ZN87_$LT$lisp..parm..heap..string..String$u20$as$u20$core..convert..From$LT$$RF$str$GT$$GT$4from17h25a10eb48256cf6dE
b	.LBB88_28
.LBB88_18:
add	r1, sp, #88
add	r0, sp, #28
mov	r2, r0
ldm	r1!, {r3, r4, r5}
stm	r2!, {r3, r4, r5}
bl	_ZN4lisp4lisp3val15LispListBuilder6finish17hb1784b4a5d2bfc82E
mov	r2, r0
add	r0, sp, #24
add	r1, sp, #76
.LBB88_19:
bl	_ZN4lisp4lisp3env9SchemeEnv7set_new17h51bc5a0f06fd5278E
.LBB88_20:
adds	r6, #36
add	r1, sp, #24
ldr	r0, [sp]
mov	r2, r6
bl	_ZN4lisp4lisp4eval44_$LT$impl$u20$lisp..lisp..env..SchemeEnv$GT$10eval_begin17ha4e7048124b69c98E
b	.LBB88_30
.LBB88_21:
ldr	r0, [r5]
cmp	r0, #0
beq	.LBB88_20
str	r5, [sp, #20]
movs	r4, #0
str	r4, [sp, #36]
str	r4, [sp, #32]
movs	r0, #4
str	r0, [sp, #28]
ldr	r5, .LCPI88_2
mov	r1, r4
.LBB88_23:
cmp	r4, #37
beq	.LBB88_27
ldr	r2, [sp, #32]
cmp	r1, r2
bne	.LBB88_26
add	r0, sp, #28
movs	r1, #1
bl	_ZN4lisp4parm4heap3vec12Vec$LT$T$GT$14grow_amortized17h354e281ba8fc9017E
ldr	r0, [sp, #28]
ldr	r1, [sp, #36]
.LBB88_26:
ldrb	r2, [r5, r4]
lsls	r3, r1, #2
str	r2, [r0, r3]
adds	r1, r1, #1
str	r1, [sp, #36]
adds	r4, r4, #1
b	.LBB88_23
.LBB88_27:
ldr	r0, [sp, #20]
adds	r0, r0, #4
add	r4, sp, #28
mov	r1, r4
bl	_ZN63_$LT$lisp..Prc$LT$T$GT$$u20$as$u20$lisp..parm..tty..Display$GT$5write17haad684c6069ddddaE
add	r0, sp, #64
ldm	r4!, {r1, r2, r3}
stm	r0!, {r1, r2, r3}
.LBB88_28:
ldr	r0, [sp, #64]
cmp	r0, #0
beq	.LBB88_20
ldr	r1, [sp, #68]
ldr	r2, [sp, #72]
ldr	r3, [sp]
stm	r3!, {r0, r1, r2}
.LBB88_30:
ldr	r0, [sp, #24]
ldr	r1, [r0]
subs	r1, r1, #1
beq	.LBB88_32
str	r1, [r0]
.LBB88_32:
add	sp, #100
pop	{r4, r5, r6, r7, pc}
.p2align	2
.LCPI88_0:
.long	.L__unnamed_22
.LCPI88_1:
.long	.L__unnamed_84
.LCPI88_2:
.long	.L__unnamed_85
.Lfunc_end88:
.size	_ZN4lisp4lisp4eval4call44_$LT$impl$u20$lisp..lisp..env..SchemeEnv$GT$18eval_nonmacro_call17h82f4437c0349fe67E, .Lfunc_end88-_ZN4lisp4lisp4eval4call44_$LT$impl$u20$lisp..lisp..env..SchemeEnv$GT$18eval_nonmacro_call17h82f4437c0349fe67E
.cantunwind
.fnend

.section	".text._ZN4lisp4lisp4eval12conditionals44_$LT$impl$u20$lisp..lisp..env..SchemeEnv$GT$9eval_when17hbf04d440d30171b0E","ax",%progbits
.p2align	2
.type	_ZN4lisp4lisp4eval12conditionals44_$LT$impl$u20$lisp..lisp..env..SchemeEnv$GT$9eval_when17hbf04d440d30171b0E,%function
.code	16
.thumb_func
_ZN4lisp4lisp4eval12conditionals44_$LT$impl$u20$lisp..lisp..env..SchemeEnv$GT$9eval_when17hbf04d440d30171b0E:
.fnstart
.save	{r4, r5, r6, r7, lr}
push	{r4, r5, r6, r7, lr}
.setfp	r7, sp, #12
add	r7, sp, #12
.pad	#28
sub	sp, #28
mov	r5, r3
str	r1, [sp, #8]
mov	r4, r0
add	r0, sp, #16
ldr	r6, .LCPI89_0
movs	r3, #4
mov	r1, r2
mov	r2, r6
bl	_ZN4lisp4lisp3val8LispList11expect_cons17h09878936b3701937E
ldr	r0, [sp, #16]
cmp	r0, #0
bne	.LBB89_2
ldr	r6, [sp, #24]
ldr	r2, [sp, #20]
add	r0, sp, #16
ldr	r1, [sp, #8]
bl	_ZN4lisp4lisp4eval44_$LT$impl$u20$lisp..lisp..env..SchemeEnv$GT$4eval17h99d6ff1af80af22dE
ldr	r0, [sp, #16]
cmp	r0, #0
beq	.LBB89_4
.LBB89_2:
ldr	r1, [sp, #20]
ldr	r2, [sp, #24]
str	r0, [r4]
str	r1, [r4, #4]
str	r2, [r4, #8]
.LBB89_3:
add	sp, #28
pop	{r4, r5, r6, r7, pc}
.LBB89_4:
ldr	r0, [sp, #8]
ldr	r2, [sp, #20]
ldr	r3, [r2, #44]
movs	r1, #5
eors	r1, r3
str	r2, [sp, #4]
ldrb	r2, [r2, #8]
orrs	r2, r1
subs	r1, r2, #1
sbcs	r2, r1
cmp	r2, r5
beq	.LBB89_8
bl	_ZN4lisp4lisp3env9SchemeEnv10make_child17hc002d9f406dacb2fE
mov	r5, r0
str	r0, [sp, #12]
ldr	r1, [r6]
adds	r1, #8
add	r0, sp, #16
ldr	r2, .LCPI89_1
movs	r3, #19
bl	_ZN4lisp4lisp3val7LispVal11expect_list17h294e3e58bbc02a2aE
ldr	r0, [sp, #16]
cmp	r0, #0
beq	.LBB89_9
ldr	r1, [sp, #20]
ldr	r2, [sp, #24]
stm	r4!, {r0, r1, r2}
ldr	r0, [r5]
subs	r0, r0, #1
beq	.LBB89_11
str	r0, [r5]
b	.LBB89_11
.LBB89_8:
movs	r0, #1
lsls	r1, r0, #16
ldr	r2, [r1]
movs	r3, #64
str	r3, [r2]
mov	r3, r2
adds	r3, #68
str	r3, [r1]
movs	r1, #0
adds	r3, r2, #4
stm	r4!, {r1, r3}
movs	r3, #9
str	r3, [r2, #48]
str	r1, [r2, #8]
str	r0, [r2, #4]
b	.LBB89_11
.LBB89_9:
ldr	r2, [sp, #20]
add	r1, sp, #12
mov	r0, r4
bl	_ZN4lisp4lisp4eval44_$LT$impl$u20$lisp..lisp..env..SchemeEnv$GT$10eval_begin17ha4e7048124b69c98E
ldr	r0, [sp, #12]
ldr	r1, [r0]
subs	r1, r1, #1
beq	.LBB89_11
str	r1, [r0]
.LBB89_11:
ldr	r1, [sp, #4]
ldr	r0, [r1]
subs	r0, r0, #1
beq	.LBB89_3
str	r0, [r1]
b	.LBB89_3
.p2align	2
.LCPI89_0:
.long	.L__unnamed_86
.LCPI89_1:
.long	.L__unnamed_87
.Lfunc_end89:
.size	_ZN4lisp4lisp4eval12conditionals44_$LT$impl$u20$lisp..lisp..env..SchemeEnv$GT$9eval_when17hbf04d440d30171b0E, .Lfunc_end89-_ZN4lisp4lisp4eval12conditionals44_$LT$impl$u20$lisp..lisp..env..SchemeEnv$GT$9eval_when17hbf04d440d30171b0E
.cantunwind
.fnend

.section	".text._ZN4lisp4lisp4eval5forms44_$LT$impl$u20$lisp..lisp..env..SchemeEnv$GT$17eval_builtin_form17hb30fa4140bb02491E","ax",%progbits
.p2align	2
.type	_ZN4lisp4lisp4eval5forms44_$LT$impl$u20$lisp..lisp..env..SchemeEnv$GT$17eval_builtin_form17hb30fa4140bb02491E,%function
.code	16
.thumb_func
_ZN4lisp4lisp4eval5forms44_$LT$impl$u20$lisp..lisp..env..SchemeEnv$GT$17eval_builtin_form17hb30fa4140bb02491E:
.fnstart
.save	{r4, r5, r6, r7, lr}
push	{r4, r5, r6, r7, lr}
.setfp	r7, sp, #12
add	r7, sp, #12
.pad	#116
sub	sp, #116
mov	r6, r3
mov	r5, r1
mov	r4, r0
str	r2, [sp, #36]
add	r0, sp, #36
ldr r1, trampo_sho8n_addr
b trampo_sho8n_after
.p2align 2
trampo_sho8n_addr: .long .LCPI90_53
trampo_sho8n_after: ldr r1, [r1]
bl	_ZN4core3cmp5impls69_$LT$impl$u20$core..cmp..PartialEq$LT$$RF$B$GT$$u20$for$u20$$RF$A$GT$2eq17h27a051c63443aa73E
cmp	r0, #0
beq	.LBB90_3
add	r0, sp, #52
ldr r2, trampo_b91hx_addr
b trampo_b91hx_after
.p2align 2
trampo_b91hx_addr: .long .LCPI90_54
trampo_b91hx_after: ldr r2, [r2]
movs	r3, #5
mov	r1, r6
bl	_ZN4lisp4lisp3val8LispList10expect_car17h8f7187e674c3274aE
ldr	r0, [sp, #52]
cmp	r0, #0
beq	.LBB90_8
ldr	r2, [sp, #60]
ldr	r1, [sp, #56]
b	.LBB90_9
.LBB90_3:
add	r0, sp, #36
ldr r1, trampo_fsw36_addr
b trampo_fsw36_after
.p2align 2
trampo_fsw36_addr: .long .LCPI90_55
trampo_fsw36_after: ldr r1, [r1]
bl	_ZN4core3cmp5impls69_$LT$impl$u20$core..cmp..PartialEq$LT$$RF$B$GT$$u20$for$u20$$RF$A$GT$2eq17h27a051c63443aa73E
cmp	r0, #0
beq	.LBB90_6
add	r0, sp, #52
ldr r2, trampo_q25ru_addr
b trampo_q25ru_after
.p2align 2
trampo_q25ru_addr: .long .LCPI90_56
trampo_q25ru_after: ldr r2, [r2]
movs	r3, #10
mov	r1, r6
bl	_ZN4lisp4lisp3val8LispList10expect_car17h8f7187e674c3274aE
ldr	r0, [sp, #52]
cmp	r0, #0
beq	.LBB90_14
add	r0, sp, #52
add	r1, sp, #80
ldm	r0!, {r2, r3, r5}
stm	r1!, {r2, r3, r5}
b	.LBB90_15
.LBB90_6:
add	r0, sp, #36
ldr r1, trampo_18paf_addr
b trampo_18paf_after
.p2align 2
trampo_18paf_addr: .long .LCPI90_35
trampo_18paf_after: ldr r1, [r1]
bl	_ZN4core3cmp5impls69_$LT$impl$u20$core..cmp..PartialEq$LT$$RF$B$GT$$u20$for$u20$$RF$A$GT$2eq17h27a051c63443aa73E
cmp	r0, #0
beq	.LBB90_11
adds	r0, r4, #4
movs	r3, #0
mov	r1, r5
mov	r2, r6
bl	_ZN4lisp4lisp4eval5forms44_$LT$impl$u20$lisp..lisp..env..SchemeEnv$GT$11eval_define17h4e37423015730f5eE
b	.LBB90_17
.LBB90_8:
ldr	r1, [sp, #56]
ldr	r1, [r1]
ldr	r2, [r1]
adds	r2, r2, #1
str	r2, [r1]
.LBB90_9:
movs	r3, #1
str	r3, [r4]
str	r0, [r4, #4]
str	r1, [r4, #8]
.LBB90_10:
str	r2, [r4, #12]
b	.LBB90_19
.LBB90_11:
add	r0, sp, #36
ldr	r1, .LCPI90_36
bl	_ZN4core3cmp5impls69_$LT$impl$u20$core..cmp..PartialEq$LT$$RF$B$GT$$u20$for$u20$$RF$A$GT$2eq17h27a051c63443aa73E
cmp	r0, #0
beq	.LBB90_20
adds	r0, r4, #4
mov	r1, r5
movs	r5, #1
mov	r2, r6
mov	r3, r5
bl	_ZN4lisp4lisp4eval5forms44_$LT$impl$u20$lisp..lisp..env..SchemeEnv$GT$11eval_define17h4e37423015730f5eE
.LBB90_13:
str	r5, [r4]
b	.LBB90_19
.LBB90_14:
ldr	r2, [sp, #56]
add	r0, sp, #80
mov	r1, r5
bl	_ZN4lisp4lisp4eval5quote44_$LT$impl$u20$lisp..lisp..env..SchemeEnv$GT$15eval_quasiquote17had9eeb35df2b5e0fE
.LBB90_15:
adds	r0, r4, #4
add	r1, sp, #80
.LBB90_16:
ldm	r1!, {r2, r3, r5}
stm	r0!, {r2, r3, r5}
.LBB90_17:
movs	r0, #1
.LBB90_18:
str	r0, [r4]
.LBB90_19:
add	sp, #116
pop	{r4, r5, r6, r7, pc}
.LBB90_20:
add	r0, sp, #36
ldr	r1, .LCPI90_37
bl	_ZN4core3cmp5impls69_$LT$impl$u20$core..cmp..PartialEq$LT$$RF$B$GT$$u20$for$u20$$RF$A$GT$2eq17h27a051c63443aa73E
cmp	r0, #0
beq	.LBB90_23
mov	r0, r5
bl	_ZN4lisp4lisp3env9SchemeEnv10make_child17hc002d9f406dacb2fE
str	r0, [sp, #52]
adds	r0, r4, #4
add	r1, sp, #52
mov	r2, r6
bl	_ZN4lisp4lisp4eval44_$LT$impl$u20$lisp..lisp..env..SchemeEnv$GT$10eval_begin17ha4e7048124b69c98E
movs	r0, #1
str	r0, [r4]
ldr	r0, [sp, #52]
ldr	r1, [r0]
subs	r1, r1, #1
beq	.LBB90_19
str	r1, [r0]
b	.LBB90_19
.LBB90_23:
add	r0, sp, #36
ldr	r1, .LCPI90_38
bl	_ZN4core3cmp5impls69_$LT$impl$u20$core..cmp..PartialEq$LT$$RF$B$GT$$u20$for$u20$$RF$A$GT$2eq17h27a051c63443aa73E
cmp	r0, #0
beq	.LBB90_26
add	r0, sp, #52
ldr	r2, .LCPI90_39
movs	r3, #6
mov	r1, r6
bl	_ZN4lisp4lisp3val8LispList11expect_cons17h09878936b3701937E
ldr	r0, [sp, #52]
cmp	r0, #0
beq	.LBB90_30
ldr	r1, [sp, #60]
str	r1, [sp, #48]
ldr	r1, [sp, #56]
str	r1, [sp, #44]
str	r0, [sp, #40]
b	.LBB90_55
.LBB90_26:
add	r0, sp, #36
ldr	r1, .LCPI90_40
bl	_ZN4core3cmp5impls69_$LT$impl$u20$core..cmp..PartialEq$LT$$RF$B$GT$$u20$for$u20$$RF$A$GT$2eq17h27a051c63443aa73E
cmp	r0, #0
beq	.LBB90_28
adds	r0, r4, #4
mov	r1, r5
mov	r2, r6
bl	_ZN4lisp4lisp4eval5forms44_$LT$impl$u20$lisp..lisp..env..SchemeEnv$GT$9eval_list17h1df638e6568ef3e8E
b	.LBB90_17
.LBB90_28:
add	r0, sp, #36
ldr	r1, .LCPI90_41
bl	_ZN4core3cmp5impls69_$LT$impl$u20$core..cmp..PartialEq$LT$$RF$B$GT$$u20$for$u20$$RF$A$GT$2eq17h27a051c63443aa73E
cmp	r0, #0
beq	.LBB90_32
adds	r0, r4, #4
movs	r3, #0
mov	r1, r5
mov	r2, r6
bl	_ZN4lisp4lisp4eval3let44_$LT$impl$u20$lisp..lisp..env..SchemeEnv$GT$8eval_let17h9c9d36645950e4f0E
b	.LBB90_17
.LBB90_30:
mov	r6, r5
ldr	r5, [sp, #60]
ldr	r1, [sp, #56]
add	r0, sp, #52
bl	_ZN4lisp4lisp4eval6lambda44_$LT$impl$u20$lisp..lisp..env..SchemeEnv$GT$16eval_lambda_args17h7d8352f128f19eb8E
ldr	r0, [sp, #52]
cmp	r0, #0
beq	.LBB90_34
add	r0, sp, #52
adds	r0, r0, #4
add	r1, sp, #40
ldm	r0!, {r2, r3, r5}
stm	r1!, {r2, r3, r5}
b	.LBB90_55
.LBB90_32:
add	r0, sp, #36
ldr	r1, .LCPI90_42
bl	_ZN4core3cmp5impls69_$LT$impl$u20$core..cmp..PartialEq$LT$$RF$B$GT$$u20$for$u20$$RF$A$GT$2eq17h27a051c63443aa73E
cmp	r0, #0
beq	.LBB90_36
adds	r0, r4, #4
mov	r1, r5
movs	r5, #1
mov	r2, r6
mov	r3, r5
bl	_ZN4lisp4lisp4eval3let44_$LT$impl$u20$lisp..lisp..env..SchemeEnv$GT$8eval_let17h9c9d36645950e4f0E
b	.LBB90_13
.LBB90_34:
add	r0, sp, #52
adds	r1, r0, #4
add	r0, sp, #80
movs	r2, #24
bl	__aeabi_memcpy
ldr	r1, [r5]
adds	r1, #8
add	r0, sp, #104
ldr	r2, .LCPI90_43
movs	r3, #21
bl	_ZN4lisp4lisp3val7LispVal11expect_list17h294e3e58bbc02a2aE
ldr	r0, [sp, #104]
cmp	r0, #0
beq	.LBB90_54
ldr	r1, [sp, #112]
str	r1, [sp, #48]
ldr	r1, [sp, #108]
str	r1, [sp, #44]
str	r0, [sp, #40]
add	r0, sp, #80
bl	_ZN4core3ptr49drop_in_place$LT$lisp..lisp..val..ClosureArgs$GT$17h8fa271c1e97a5ff3E
b	.LBB90_55
.LBB90_36:
add	r0, sp, #36
ldr	r1, .LCPI90_44
bl	_ZN4core3cmp5impls69_$LT$impl$u20$core..cmp..PartialEq$LT$$RF$B$GT$$u20$for$u20$$RF$A$GT$2eq17h27a051c63443aa73E
cmp	r0, #0
beq	.LBB90_43
add	r0, sp, #52
ldr	r2, .LCPI90_45
movs	r3, #2
mov	r1, r6
bl	_ZN4lisp4lisp3val8LispList11expect_cons17h09878936b3701937E
ldr	r0, [sp, #52]
cmp	r0, #0
bne	.LBB90_39
ldr	r6, [sp, #56]
ldr	r0, [sp, #60]
ldr	r1, [r0]
adds	r1, #8
add	r0, sp, #52
ldr	r2, .LCPI90_45
movs	r3, #2
bl	_ZN4lisp4lisp3val7LispVal11expect_list17h294e3e58bbc02a2aE
ldr	r0, [sp, #52]
cmp	r0, #0
bne	.LBB90_39
b	.LBB90_90
.LBB90_39:
ldr	r1, [sp, #60]
str	r1, [sp, #112]
ldr	r1, [sp, #56]
.LBB90_40:
str	r1, [sp, #108]
.LBB90_41:
str	r0, [sp, #104]
.LBB90_42:
adds	r0, r4, #4
add	r1, sp, #104
b	.LBB90_16
.LBB90_43:
add	r0, sp, #36
ldr	r1, .LCPI90_46
bl	_ZN4core3cmp5impls69_$LT$impl$u20$core..cmp..PartialEq$LT$$RF$B$GT$$u20$for$u20$$RF$A$GT$2eq17h27a051c63443aa73E
cmp	r0, #0
beq	.LBB90_56
movs	r2, #1
lsls	r3, r2, #16
ldr	r0, [r3]
movs	r1, #64
str	r1, [sp, #8]
str	r1, [r0]
mov	r1, r0
adds	r1, #68
str	r3, [sp, #12]
str	r1, [r3]
movs	r1, #5
str	r1, [sp, #4]
str	r1, [r0, #48]
strb	r2, [r0, #12]
movs	r1, #0
str	r1, [sp, #16]
str	r1, [r0, #8]
str	r2, [sp, #20]
str	r2, [r0, #4]
adds	r0, r0, #4
str	r5, [sp, #24]
.LBB90_45:
mov	r1, r0
ldr	r0, [r6]
cmp	r0, #0
bne	.LBB90_46
b	.LBB90_82
.LBB90_46:
str	r1, [sp, #32]
mov	r1, r5
ldr	r5, [r6, #8]
ldr	r0, [r5, #44]
str	r0, [sp, #28]
adds	r2, r6, #4
add	r0, sp, #52
bl	_ZN4lisp4lisp4eval44_$LT$impl$u20$lisp..lisp..env..SchemeEnv$GT$4eval17h99d6ff1af80af22dE
ldr	r0, [sp, #28]
cmp	r0, #8
beq	.LBB90_48
ldr	r6, .LCPI90_47
b	.LBB90_49
.LBB90_48:
adds	r5, #8
mov	r6, r5
.LBB90_49:
ldr	r0, [sp, #56]
ldr	r1, [sp, #52]
cmp	r1, #0
ldr	r5, [sp, #24]
ldr	r3, [sp, #32]
beq	.LBB90_50
b	.LBB90_83
.LBB90_50:
ldr	r2, [r0, #44]
cmp	r2, #5
bne	.LBB90_52
ldrb	r2, [r0, #8]
cmp	r2, #0
bne	.LBB90_52
b	.LBB90_84
.LBB90_52:
ldr	r1, [r3]
subs	r1, r1, #1
beq	.LBB90_45
str	r1, [r3]
b	.LBB90_45
.LBB90_54:
ldr	r3, [sp, #108]
movs	r0, #0
str	r0, [sp]
add	r0, sp, #40
add	r2, sp, #80
mov	r1, r6
bl	_ZN4lisp4lisp4eval6lambda44_$LT$impl$u20$lisp..lisp..env..SchemeEnv$GT$12eval_closure17h809ecfc2c7829d5fE
.LBB90_55:
adds	r0, r4, #4
add	r1, sp, #40
b	.LBB90_16
.LBB90_56:
add	r0, sp, #36
ldr	r1, .LCPI90_48
bl	_ZN4core3cmp5impls69_$LT$impl$u20$core..cmp..PartialEq$LT$$RF$B$GT$$u20$for$u20$$RF$A$GT$2eq17h27a051c63443aa73E
cmp	r0, #0
beq	.LBB90_66
.LBB90_57:
ldr	r0, [r6]
cmp	r0, #0
bne	.LBB90_58
b	.LBB90_99
.LBB90_58:
ldr	r0, [r6, #8]
str	r0, [sp, #28]
ldr	r0, [r0, #44]
str	r0, [sp, #32]
adds	r2, r6, #4
add	r0, sp, #52
mov	r1, r5
bl	_ZN4lisp4lisp4eval44_$LT$impl$u20$lisp..lisp..env..SchemeEnv$GT$4eval17h99d6ff1af80af22dE
ldr	r0, [sp, #32]
cmp	r0, #8
beq	.LBB90_60
ldr	r6, .LCPI90_47
b	.LBB90_61
.LBB90_60:
ldr	r6, [sp, #28]
adds	r6, #8
.LBB90_61:
ldr	r0, [sp, #56]
ldr	r1, [sp, #52]
cmp	r1, #0
beq	.LBB90_62
b	.LBB90_100
.LBB90_62:
ldr	r1, [r0]
ldr	r2, [r0, #44]
cmp	r2, #5
beq	.LBB90_63
b	.LBB90_122
.LBB90_63:
ldrb	r2, [r0, #8]
cmp	r2, #0
beq	.LBB90_64
b	.LBB90_122
.LBB90_64:
subs	r1, r1, #1
beq	.LBB90_57
str	r1, [r0]
b	.LBB90_57
.LBB90_66:
add	r0, sp, #36
ldr	r1, .LCPI90_49
bl	_ZN4core3cmp5impls69_$LT$impl$u20$core..cmp..PartialEq$LT$$RF$B$GT$$u20$for$u20$$RF$A$GT$2eq17h27a051c63443aa73E
cmp	r0, #0
bne	.LBB90_67
b	.LBB90_96
.LBB90_67:
str	r5, [sp, #24]
.LBB90_68:
ldr	r0, [r6]
cmp	r0, #0
bne	.LBB90_69
b	.LBB90_138
.LBB90_69:
ldr	r1, [r6, #4]
ldr	r6, [r6, #8]
ldr	r5, [r6, #44]
adds	r1, #8
add	r0, sp, #52
movs	r3, #4
ldr	r2, .LCPI90_50
bl	_ZN4lisp4lisp3val7LispVal11expect_list17h294e3e58bbc02a2aE
cmp	r5, #8
beq	.LBB90_71
ldr	r6, .LCPI90_47
b	.LBB90_72
.LBB90_71:
adds	r6, #8
.LBB90_72:
ldr	r1, [sp, #56]
ldr	r0, [sp, #52]
cmp	r0, #0
beq	.LBB90_73
b	.LBB90_140
.LBB90_73:
add	r0, sp, #80
movs	r3, #4
ldr	r2, .LCPI90_50
bl	_ZN4lisp4lisp3val8LispList11expect_cons17h09878936b3701937E
add	r5, sp, #80
ldm	r5, {r0, r2, r5}
cmp	r0, #0
beq	.LBB90_74
b	.LBB90_141
.LBB90_74:
ldr	r0, [r2]
ldr	r1, [r0, #44]
cmp	r1, #3
bne	.LBB90_77
str	r5, [sp, #32]
mov	r5, r2
adds	r0, #8
str	r0, [sp, #80]
add	r0, sp, #80
ldr	r1, .LCPI90_51
bl	_ZN4core3cmp5impls69_$LT$impl$u20$core..cmp..PartialEq$LT$$RF$B$GT$$u20$for$u20$$RF$A$GT$2eq17h27a051c63443aa73E
cmp	r0, #0
beq	.LBB90_76
b	.LBB90_147
.LBB90_76:
mov	r2, r5
ldr	r5, [sp, #32]
.LBB90_77:
add	r0, sp, #52
ldr	r1, [sp, #24]
bl	_ZN4lisp4lisp4eval44_$LT$impl$u20$lisp..lisp..env..SchemeEnv$GT$4eval17h99d6ff1af80af22dE
ldr	r2, [sp, #56]
ldr	r0, [sp, #52]
cmp	r0, #0
beq	.LBB90_78
b	.LBB90_142
.LBB90_78:
ldr	r0, [r2, #44]
cmp	r0, #5
beq	.LBB90_79
b	.LBB90_144
.LBB90_79:
ldrb	r0, [r2, #8]
cmp	r0, #0
beq	.LBB90_80
b	.LBB90_144
.LBB90_80:
ldr	r0, [r2]
subs	r0, r0, #1
beq	.LBB90_68
str	r0, [r2]
b	.LBB90_68
.LBB90_82:
mov	r0, r1
ldr	r1, [sp, #16]
ldr	r5, [sp, #20]
b	.LBB90_89
.LBB90_83:
ldr	r2, [sp, #60]
ldr	r5, [sp, #20]
b	.LBB90_87
.LBB90_84:
ldr	r5, [sp, #12]
ldr	r2, [r5]
ldr	r3, [sp, #8]
str	r3, [r2]
mov	r3, r2
adds	r3, #68
str	r3, [r5]
ldr	r3, [sp, #4]
str	r3, [r2, #48]
movs	r3, #0
strb	r3, [r2, #12]
str	r3, [r2, #8]
ldr	r5, [sp, #20]
str	r5, [r2, #4]
adds	r3, r2, #4
ldr	r2, [r0]
subs	r2, r2, #1
beq	.LBB90_86
str	r2, [r0]
.LBB90_86:
mov	r0, r3
ldr	r3, [sp, #32]
.LBB90_87:
mov	r6, r3
ldr	r3, [r3]
subs	r3, r3, #1
beq	.LBB90_89
str	r3, [r6]
.LBB90_89:
str	r5, [r4]
b	.LBB90_127
.LBB90_90:
ldr	r1, [sp, #56]
add	r0, sp, #80
ldr	r2, .LCPI90_45
movs	r3, #2
bl	_ZN4lisp4lisp3val8LispList11expect_cons17h09878936b3701937E
ldr	r0, [sp, #80]
cmp	r0, #0
beq	.LBB90_130
ldr	r1, [sp, #88]
str	r1, [sp, #112]
ldr	r1, [sp, #84]
b	.LBB90_40
.p2align	2
.LCPI90_53:
.long	.L__unnamed_88
.p2align	2
.LCPI90_54:
.long	.L__unnamed_89
.p2align	2
.LCPI90_55:
.long	.L__unnamed_90
.p2align	2
.LCPI90_56:
.long	.L__unnamed_91
.p2align	1
.LBB90_96:
add	r0, sp, #36
ldr	r1, .LCPI90_52
bl	_ZN4core3cmp5impls69_$LT$impl$u20$core..cmp..PartialEq$LT$$RF$B$GT$$u20$for$u20$$RF$A$GT$2eq17h27a051c63443aa73E
cmp	r0, #0
beq	.LBB90_128
adds	r0, r4, #4
movs	r3, #0
mov	r1, r5
mov	r2, r6
bl	_ZN4lisp4lisp4eval12conditionals44_$LT$impl$u20$lisp..lisp..env..SchemeEnv$GT$9eval_when17hbf04d440d30171b0E
b	.LBB90_17
.p2align	1
.LBB90_99:
movs	r0, #1
lsls	r1, r0, #16
ldr	r2, [r1]
movs	r3, #64
str	r3, [r2]
mov	r3, r2
adds	r3, #68
str	r3, [r1]
movs	r1, #5
str	r1, [r2, #48]
movs	r1, #0
strb	r1, [r2, #12]
str	r1, [r2, #8]
str	r0, [r2, #4]
adds	r0, r2, #4
b	.LBB90_125
.LBB90_100:
ldr	r2, [sp, #60]
b	.LBB90_126
.p2align	2
.LCPI90_35:
.long	.L__unnamed_92
.p2align	2
.LCPI90_36:
.long	.L__unnamed_93
.p2align	2
.LCPI90_37:
.long	.L__unnamed_94
.p2align	2
.LCPI90_38:
.long	.L__unnamed_95
.p2align	2
.LCPI90_39:
.long	.L__unnamed_96
.p2align	2
.LCPI90_40:
.long	.L__unnamed_97
.p2align	2
.LCPI90_41:
.long	.L__unnamed_98
.p2align	2
.LCPI90_42:
.long	.L__unnamed_99
.p2align	2
.LCPI90_43:
.long	.L__unnamed_100
.p2align	2
.LCPI90_44:
.long	.L__unnamed_101
.p2align	2
.LCPI90_45:
.long	.L__unnamed_102
.p2align	2
.LCPI90_46:
.long	.L__unnamed_103
.p2align	2
.LCPI90_47:
.long	.L__unnamed_22
.p2align	2
.LCPI90_48:
.long	.L__unnamed_104
.p2align	2
.LCPI90_49:
.long	.L__unnamed_105
.p2align	2
.LCPI90_50:
.long	.L__unnamed_106
.p2align	2
.LCPI90_51:
.long	.L__unnamed_107
.p2align	2
.LCPI90_52:
.long	.L__unnamed_108
.p2align	1
.LBB90_122:
cmp	r1, #0
bne	.LBB90_124
movs	r1, #1
.LBB90_124:
str	r1, [r0]
movs	r1, #0
.LBB90_125:
.LBB90_126:
movs	r3, #1
str	r3, [r4]
.LBB90_127:
str	r1, [r4, #4]
str	r0, [r4, #8]
b	.LBB90_10
.LBB90_128:
str	r5, [sp, #24]
add	r0, sp, #36
ldr	r1, .LCPI90_14
bl	_ZN4core3cmp5impls69_$LT$impl$u20$core..cmp..PartialEq$LT$$RF$B$GT$$u20$for$u20$$RF$A$GT$2eq17h27a051c63443aa73E
cmp	r0, #0
beq	.LBB90_134
adds	r0, r4, #4
movs	r5, #1
ldr	r1, [sp, #24]
mov	r2, r6
mov	r3, r5
bl	_ZN4lisp4lisp4eval12conditionals44_$LT$impl$u20$lisp..lisp..env..SchemeEnv$GT$9eval_when17hbf04d440d30171b0E
b	.LBB90_13
.LBB90_130:
ldr	r0, [sp, #88]
str	r0, [sp, #28]
ldr	r0, [sp, #84]
str	r0, [sp, #32]
add	r0, sp, #52
mov	r1, r5
mov	r2, r6
bl	_ZN4lisp4lisp4eval44_$LT$impl$u20$lisp..lisp..env..SchemeEnv$GT$4eval17h99d6ff1af80af22dE
ldr	r0, [sp, #52]
cmp	r0, #0
beq	.LBB90_131
b	.LBB90_39
.LBB90_131:
ldr	r6, [sp, #56]
ldr	r0, [r6, #44]
movs	r1, #5
eors	r1, r0
ldrb	r0, [r6, #8]
orrs	r0, r1
beq	.LBB90_149
add	r0, sp, #104
mov	r1, r5
ldr	r2, [sp, #32]
.LBB90_133:
bl	_ZN4lisp4lisp4eval44_$LT$impl$u20$lisp..lisp..env..SchemeEnv$GT$4eval17h99d6ff1af80af22dE
b	.LBB90_151
.LBB90_134:
add	r0, sp, #36
ldr	r1, .LCPI90_15
bl	_ZN4core3cmp5impls69_$LT$impl$u20$core..cmp..PartialEq$LT$$RF$B$GT$$u20$for$u20$$RF$A$GT$2eq17h27a051c63443aa73E
cmp	r0, #0
beq	.LBB90_146
add	r0, sp, #52
ldr	r2, .LCPI90_16
movs	r3, #4
mov	r1, r6
str	r3, [sp, #32]
bl	_ZN4lisp4lisp3val8LispList11expect_cons17h09878936b3701937E
ldr	r0, [sp, #52]
cmp	r0, #0
bne	.LBB90_137
ldr	r5, [sp, #60]
ldr	r2, [sp, #56]
add	r0, sp, #52
ldr	r1, [sp, #24]
bl	_ZN4lisp4lisp4eval44_$LT$impl$u20$lisp..lisp..env..SchemeEnv$GT$4eval17h99d6ff1af80af22dE
ldr	r0, [sp, #52]
cmp	r0, #0
bne	.LBB90_137
b	.LBB90_164
.LBB90_137:
ldr	r1, [sp, #60]
str	r1, [sp, #88]
ldr	r1, [sp, #56]
str	r1, [sp, #84]
str	r0, [sp, #80]
b	.LBB90_15
.LBB90_138:
movs	r0, #1
lsls	r1, r0, #16
ldr	r2, [r1]
movs	r3, #64
str	r3, [r2]
mov	r3, r2
adds	r3, #68
str	r3, [r1]
movs	r1, #9
str	r1, [r2, #48]
movs	r1, #0
str	r1, [r2, #8]
str	r0, [r2, #4]
str	r1, [sp, #104]
adds	r0, r2, #4
.LBB90_139:
str	r0, [sp, #108]
b	.LBB90_42
.LBB90_140:
ldr	r2, [sp, #60]
str	r2, [sp, #112]
b	.LBB90_40
.LBB90_141:
str	r5, [sp, #112]
b	.LBB90_143
.LBB90_142:
ldr	r1, [sp, #60]
str	r1, [sp, #112]
.LBB90_143:
str	r2, [sp, #108]
b	.LBB90_41
.LBB90_144:
str	r2, [sp, #32]
ldr	r1, [r5]
adds	r1, #8
add	r0, sp, #52
ldr	r2, .LCPI90_24
movs	r3, #4
bl	_ZN4lisp4lisp3val7LispVal11expect_list17h294e3e58bbc02a2aE
ldr	r0, [sp, #52]
cmp	r0, #0
beq	.LBB90_153
.LBB90_145:
ldr	r1, [sp, #60]
str	r1, [sp, #112]
ldr	r1, [sp, #56]
str	r1, [sp, #108]
str	r0, [sp, #104]
b	.LBB90_159
.LBB90_146:
movs	r0, #0
b	.LBB90_18
.LBB90_147:
ldr	r0, [sp, #32]
ldr	r1, [r0]
adds	r1, #8
add	r0, sp, #52
ldr	r2, .LCPI90_24
movs	r3, #4
bl	_ZN4lisp4lisp3val7LispVal11expect_list17h294e3e58bbc02a2aE
ldr	r0, [sp, #52]
cmp	r0, #0
beq	.LBB90_148
b	.LBB90_39
.LBB90_148:
ldr	r2, [sp, #56]
add	r0, sp, #104
ldr	r1, [sp, #24]
bl	_ZN4lisp4lisp4eval44_$LT$impl$u20$lisp..lisp..env..SchemeEnv$GT$10eval_begin17ha4e7048124b69c98E
b	.LBB90_42
.LBB90_149:
ldr	r0, [sp, #28]
ldr	r1, [r0]
adds	r1, #8
add	r0, sp, #52
ldr	r2, .LCPI90_26
movs	r3, #2
bl	_ZN4lisp4lisp3val7LispVal11expect_list17h294e3e58bbc02a2aE
ldr	r0, [sp, #52]
cmp	r0, #0
beq	.LBB90_161
ldr	r1, [sp, #60]
str	r1, [sp, #112]
ldr	r1, [sp, #56]
str	r1, [sp, #108]
str	r0, [sp, #104]
.LBB90_151:
ldr	r0, [r6]
subs	r0, r0, #1
bne	.LBB90_152
b	.LBB90_42
.LBB90_152:
str	r0, [r6]
b	.LBB90_42
.LBB90_153:
ldr	r6, [sp, #56]
ldr	r0, [r6]
cmp	r0, #0
beq	.LBB90_163
ldr	r0, [r6, #4]
ldr	r1, [r0, #44]
cmp	r1, #3
bne	.LBB90_158
adds	r0, #8
str	r0, [sp, #80]
add	r0, sp, #80
ldr	r1, .LCPI90_25
bl	_ZN4core3cmp5impls69_$LT$impl$u20$core..cmp..PartialEq$LT$$RF$B$GT$$u20$for$u20$$RF$A$GT$2eq17h27a051c63443aa73E
cmp	r0, #0
beq	.LBB90_158
ldr	r1, [r6, #8]
adds	r1, #8
add	r0, sp, #52
ldr	r2, .LCPI90_24
movs	r3, #4
bl	_ZN4lisp4lisp3val7LispVal15expect_nonmacro17hcb2057f471f32edaE
ldr	r0, [sp, #52]
cmp	r0, #0
bne	.LBB90_145
ldr	r2, [sp, #56]
movs	r0, #1
lsls	r1, r0, #16
ldr	r3, [r1]
movs	r5, #64
str	r5, [r3]
mov	r5, r3
adds	r5, #68
str	r5, [r1]
movs	r1, #8
str	r1, [r3, #48]
movs	r1, #0
str	r1, [r3, #12]
str	r1, [r3, #8]
str	r0, [r3, #4]
adds	r1, r3, #4
str	r1, [sp, #60]
ldr	r1, [sp, #32]
str	r1, [sp, #56]
str	r0, [sp, #52]
add	r0, sp, #104
add	r5, sp, #52
ldr	r1, [sp, #24]
mov	r3, r5
bl	_ZN4lisp4lisp4eval4call44_$LT$impl$u20$lisp..lisp..env..SchemeEnv$GT$18eval_nonmacro_call17h82f4437c0349fe67E
mov	r0, r5
bl	_ZN4core3ptr46drop_in_place$LT$lisp..lisp..val..LispList$GT$17hd9db06d8e85b1709E
b	.LBB90_42
.LBB90_158:
add	r0, sp, #104
ldr	r1, [sp, #24]
mov	r2, r6
bl	_ZN4lisp4lisp4eval44_$LT$impl$u20$lisp..lisp..env..SchemeEnv$GT$10eval_begin17ha4e7048124b69c98E
.LBB90_159:
ldr	r0, [sp, #32]
ldr	r0, [r0]
subs	r0, r0, #1
bne	.LBB90_160
b	.LBB90_42
.LBB90_160:
ldr	r1, [sp, #32]
str	r0, [r1]
b	.LBB90_42
.LBB90_161:
ldr	r0, [sp, #56]
ldr	r1, [r0]
cmp	r1, #0
beq	.LBB90_182
adds	r2, r0, #4
add	r0, sp, #104
mov	r1, r5
b	.LBB90_133
.LBB90_163:
movs	r0, #0
str	r0, [sp, #104]
ldr	r0, [sp, #32]
b	.LBB90_139
.LBB90_164:
ldr	r0, [sp, #56]
str	r0, [sp, #28]
ldr	r1, [r5]
adds	r1, #8
add	r0, sp, #52
ldr	r2, .LCPI90_17
movs	r3, #24
bl	_ZN4lisp4lisp3val7LispVal11expect_list17h294e3e58bbc02a2aE
ldr	r0, [sp, #52]
cmp	r0, #0
bne	.LBB90_186
ldr	r0, [sp, #56]
ldr	r6, [sp, #28]
adds	r6, #8
.LBB90_166:
ldr	r1, [r0]
cmp	r1, #0
bne	.LBB90_167
b	.LBB90_198
.LBB90_167:
ldr	r1, [r0, #8]
str	r1, [sp, #20]
ldr	r1, [r1, #44]
cmp	r1, #8
beq	.LBB90_169
ldr	r1, .LCPI90_18
b	.LBB90_170
.LBB90_169:
ldr	r1, [sp, #20]
adds	r1, #8
.LBB90_170:
str	r1, [sp, #20]
ldr	r1, [r0, #4]
ldr	r2, [r1, #44]
cmp	r2, #8
beq	.LBB90_171
b	.LBB90_199
.LBB90_171:
adds	r1, #8
add	r0, sp, #52
movs	r3, #19
ldr	r2, .LCPI90_20
bl	_ZN4lisp4lisp3val8LispList11expect_cons17h09878936b3701937E
ldr	r0, [sp, #60]
str	r0, [sp, #12]
ldr	r0, [sp, #56]
str	r0, [sp, #16]
ldr	r0, [sp, #52]
cmp	r0, #0
beq	.LBB90_172
b	.LBB90_204
.LBB90_172:
ldr	r0, [sp, #16]
ldr	r0, [r0]
ldr	r1, [r0, #44]
cmp	r1, #2
bhi	.LBB90_174
movs	r1, #7
b	.LBB90_175
.LBB90_174:
subs	r1, r1, #3
.LBB90_175:
adds	r0, #8
cmp	r1, #5
bne	.LBB90_183
.LBB90_176:
ldr	r1, [r0]
cmp	r1, #0
beq	.LBB90_181
ldr	r5, [r0, #8]
ldr	r1, [r5, #44]
cmp	r1, #8
beq	.LBB90_179
ldr	r5, .LCPI90_18
b	.LBB90_180
.LBB90_179:
adds	r5, #8
.LBB90_180:
ldr	r0, [r0, #4]
adds	r0, #8
mov	r1, r6
bl	_ZN4lisp4lisp3val7LispVal5equal17h87d04ea4fbf40e9eE
cmp	r0, #0
mov	r0, r5
beq	.LBB90_176
b	.LBB90_185
.LBB90_181:
ldr	r0, [sp, #20]
b	.LBB90_166
.LBB90_182:
movs	r0, #1
lsls	r1, r0, #16
ldr	r2, [r1]
movs	r3, #64
str	r3, [r2]
mov	r3, r2
adds	r3, #68
str	r3, [r1]
movs	r1, #9
str	r1, [r2, #48]
movs	r1, #0
str	r1, [r2, #8]
str	r0, [r2, #4]
str	r1, [sp, #104]
adds	r0, r2, #4
str	r0, [sp, #108]
b	.LBB90_151
.LBB90_183:
cmp	r1, #0
bne	.LBB90_192
str	r0, [sp, #52]
add	r0, sp, #52
ldr	r1, .LCPI90_21
bl	_ZN4core3cmp5impls69_$LT$impl$u20$core..cmp..PartialEq$LT$$RF$B$GT$$u20$for$u20$$RF$A$GT$2eq17h27a051c63443aa73E
cmp	r0, #0
beq	.LBB90_192
.LBB90_185:
ldr	r0, [sp, #12]
ldr	r1, [r0]
adds	r1, #8
add	r0, sp, #52
ldr	r2, .LCPI90_22
movs	r3, #19
bl	_ZN4lisp4lisp3val7LispVal11expect_list17h294e3e58bbc02a2aE
ldr	r0, [sp, #52]
cmp	r0, #0
beq	.LBB90_190
.LBB90_186:
ldr	r1, [sp, #60]
str	r1, [sp, #88]
ldr	r1, [sp, #56]
.LBB90_187:
str	r1, [sp, #84]
str	r0, [sp, #80]
.LBB90_188:
ldr	r0, [sp, #28]
ldr	r0, [r0]
subs	r0, r0, #1
bne	.LBB90_189
b	.LBB90_15
.LBB90_189:
ldr	r1, [sp, #28]
str	r0, [r1]
b	.LBB90_15
.LBB90_190:
ldr	r6, [sp, #56]
ldr	r0, [sp, #24]
bl	_ZN4lisp4lisp3env9SchemeEnv10make_child17hc002d9f406dacb2fE
str	r0, [sp, #52]
add	r0, sp, #80
add	r1, sp, #52
mov	r2, r6
bl	_ZN4lisp4lisp4eval44_$LT$impl$u20$lisp..lisp..env..SchemeEnv$GT$10eval_begin17ha4e7048124b69c98E
ldr	r0, [sp, #52]
ldr	r1, [r0]
subs	r1, r1, #1
beq	.LBB90_188
str	r1, [r0]
b	.LBB90_188
.LBB90_192:
movs	r5, #0
str	r5, [sp, #60]
str	r5, [sp, #56]
movs	r0, #4
str	r0, [sp, #52]
ldr	r6, .LCPI90_23
mov	r1, r5
.LBB90_193:
cmp	r5, #35
beq	.LBB90_197
ldr	r2, [sp, #56]
cmp	r1, r2
bne	.LBB90_196
add	r0, sp, #52
movs	r1, #1
bl	_ZN4lisp4parm4heap3vec12Vec$LT$T$GT$14grow_amortized17h354e281ba8fc9017E
ldr	r0, [sp, #52]
ldr	r1, [sp, #60]
.LBB90_196:
ldrb	r2, [r6, r5]
lsls	r3, r1, #2
str	r2, [r0, r3]
adds	r1, r1, #1
str	r1, [sp, #60]
adds	r5, r5, #1
b	.LBB90_193
.LBB90_197:
add	r6, sp, #52
ldr	r0, [sp, #16]
b	.LBB90_206
.LBB90_198:
movs	r0, #1
lsls	r1, r0, #16
ldr	r2, [r1]
movs	r3, #64
str	r3, [r2]
mov	r3, r2
adds	r3, #68
str	r3, [r1]
movs	r1, #9
str	r1, [r2, #48]
movs	r1, #0
str	r1, [r2, #8]
str	r0, [r2, #4]
str	r1, [sp, #80]
adds	r0, r2, #4
str	r0, [sp, #84]
b	.LBB90_188
.LBB90_199:
movs	r5, #0
str	r5, [sp, #60]
str	r5, [sp, #56]
ldr	r1, [sp, #32]
str	r1, [sp, #52]
adds	r0, r0, #4
str	r0, [sp, #24]
ldr	r6, .LCPI90_19
mov	r0, r5
.LBB90_200:
cmp	r5, #25
beq	.LBB90_205
ldr	r1, [sp, #56]
cmp	r0, r1
bne	.LBB90_203
add	r0, sp, #52
movs	r1, #1
bl	_ZN4lisp4parm4heap3vec12Vec$LT$T$GT$14grow_amortized17h354e281ba8fc9017E
ldr	r0, [sp, #52]
str	r0, [sp, #32]
ldr	r0, [sp, #60]
.LBB90_203:
ldrb	r1, [r6, r5]
lsls	r2, r0, #2
ldr	r3, [sp, #32]
str	r1, [r3, r2]
adds	r0, r0, #1
str	r0, [sp, #60]
adds	r5, r5, #1
b	.LBB90_200
.LBB90_204:
ldr	r1, [sp, #12]
str	r1, [sp, #88]
ldr	r1, [sp, #16]
b	.LBB90_187
.LBB90_205:
add	r6, sp, #52
ldr	r0, [sp, #24]
.LBB90_206:
mov	r1, r6
bl	_ZN63_$LT$lisp..Prc$LT$T$GT$$u20$as$u20$lisp..parm..tty..Display$GT$5write17haad684c6069ddddaE
add	r0, sp, #80
ldm	r6!, {r1, r2, r3}
stm	r0!, {r1, r2, r3}
b	.LBB90_188
.p2align	2
.LCPI90_14:
.long	.L__unnamed_109
.LCPI90_15:
.long	.L__unnamed_110
.LCPI90_16:
.long	.L__unnamed_111
.LCPI90_17:
.long	.L__unnamed_112
.LCPI90_18:
.long	.L__unnamed_22
.LCPI90_19:
.long	.L__unnamed_113
.LCPI90_20:
.long	.L__unnamed_114
.LCPI90_21:
.long	.L__unnamed_107
.LCPI90_22:
.long	.L__unnamed_115
.LCPI90_23:
.long	.L__unnamed_116
.LCPI90_24:
.long	.L__unnamed_106
.LCPI90_25:
.long	.L__unnamed_117
.LCPI90_26:
.long	.L__unnamed_102
.Lfunc_end90:
.size	_ZN4lisp4lisp4eval5forms44_$LT$impl$u20$lisp..lisp..env..SchemeEnv$GT$17eval_builtin_form17hb30fa4140bb02491E, .Lfunc_end90-_ZN4lisp4lisp4eval5forms44_$LT$impl$u20$lisp..lisp..env..SchemeEnv$GT$17eval_builtin_form17hb30fa4140bb02491E
.cantunwind
.fnend

.section	".text._ZN4lisp4lisp4eval5forms44_$LT$impl$u20$lisp..lisp..env..SchemeEnv$GT$9eval_list17h1df638e6568ef3e8E","ax",%progbits
.p2align	2
.type	_ZN4lisp4lisp4eval5forms44_$LT$impl$u20$lisp..lisp..env..SchemeEnv$GT$9eval_list17h1df638e6568ef3e8E,%function
.code	16
.thumb_func
_ZN4lisp4lisp4eval5forms44_$LT$impl$u20$lisp..lisp..env..SchemeEnv$GT$9eval_list17h1df638e6568ef3e8E:
.fnstart
.save	{r4, r5, r6, r7, lr}
push	{r4, r5, r6, r7, lr}
.setfp	r7, sp, #12
add	r7, sp, #12
.pad	#36
sub	sp, #36
mov	r5, r1
str	r0, [sp, #8]
movs	r0, #1
lsls	r0, r0, #16
ldr	r1, [r0]
movs	r3, #64
str	r3, [r1]
mov	r3, r1
adds	r3, #68
str	r3, [r0]
movs	r0, #8
str	r0, [r1, #48]
movs	r0, #0
str	r0, [r1, #12]
str	r0, [sp, #4]
str	r0, [r1, #8]
movs	r0, #3
str	r0, [r1, #4]
adds	r0, r1, #4
str	r0, [sp, #20]
str	r0, [sp, #16]
str	r0, [sp, #12]
.LBB91_1:
ldr	r0, [r2]
cmp	r0, #0
beq	.LBB91_6
ldr	r6, [r2, #8]
ldr	r4, [r6, #44]
adds	r2, r2, #4
add	r0, sp, #24
mov	r1, r5
bl	_ZN4lisp4lisp4eval44_$LT$impl$u20$lisp..lisp..env..SchemeEnv$GT$4eval17h99d6ff1af80af22dE
ldr	r0, [sp, #24]
cmp	r0, #0
bne	.LBB91_7
ldr	r1, [sp, #28]
add	r0, sp, #12
bl	_ZN4lisp4lisp3val15LispListBuilder4push17h6b8263f332e9e854E
cmp	r4, #8
beq	.LBB91_5
ldr	r2, .LCPI91_0
b	.LBB91_1
.LBB91_5:
adds	r6, #8
mov	r2, r6
b	.LBB91_1
.LBB91_6:
add	r1, sp, #12
add	r0, sp, #24
mov	r2, r0
ldm	r1!, {r3, r4, r5}
stm	r2!, {r3, r4, r5}
bl	_ZN4lisp4lisp3val15LispListBuilder6finish17hb1784b4a5d2bfc82E
ldr	r1, [sp, #8]
ldr	r2, [sp, #4]
str	r2, [r1]
str	r0, [r1, #4]
b	.LBB91_8
.LBB91_7:
ldr	r1, [sp, #28]
ldr	r2, [sp, #32]
ldr	r3, [sp, #8]
stm	r3!, {r0, r1, r2}
add	r0, sp, #12
bl	_ZN4core3ptr53drop_in_place$LT$lisp..lisp..val..LispListBuilder$GT$17h93e030bd379a099cE
.LBB91_8:
add	sp, #36
pop	{r4, r5, r6, r7, pc}
.p2align	2
.LCPI91_0:
.long	.L__unnamed_22
.Lfunc_end91:
.size	_ZN4lisp4lisp4eval5forms44_$LT$impl$u20$lisp..lisp..env..SchemeEnv$GT$9eval_list17h1df638e6568ef3e8E, .Lfunc_end91-_ZN4lisp4lisp4eval5forms44_$LT$impl$u20$lisp..lisp..env..SchemeEnv$GT$9eval_list17h1df638e6568ef3e8E
.cantunwind
.fnend

.section	".text._ZN4lisp4lisp4eval5forms44_$LT$impl$u20$lisp..lisp..env..SchemeEnv$GT$11eval_define17h4e37423015730f5eE","ax",%progbits
.p2align	2
.type	_ZN4lisp4lisp4eval5forms44_$LT$impl$u20$lisp..lisp..env..SchemeEnv$GT$11eval_define17h4e37423015730f5eE,%function
.code	16
.thumb_func
_ZN4lisp4lisp4eval5forms44_$LT$impl$u20$lisp..lisp..env..SchemeEnv$GT$11eval_define17h4e37423015730f5eE:
.fnstart
.save	{r4, r5, r6, r7, lr}
push	{r4, r5, r6, r7, lr}
.setfp	r7, sp, #12
add	r7, sp, #12
.pad	#196
sub	sp, #196
str	r3, [sp, #48]
mov	r5, r2
mov	r6, r0
str	r1, [sp, #52]
ldr	r0, [r1]
movs	r1, #48
ldrb	r0, [r0, r1]
cmp	r0, #0
beq	.LBB92_5
movs	r0, #255
mvns	r4, r0
movs	r0, #0
ldr	r1, .LCPI92_0
.LBB92_2:
cmp	r0, #8
beq	.LBB92_4
ldrb	r2, [r1, r0]
str	r2, [r4]
adds	r0, r0, #1
b	.LBB92_2
.LBB92_4:
mov	r0, r5
bl	_ZN4lisp4lisp3val10write_list17h3c6870a22ca2c2eaE
movs	r0, #10
str	r0, [r4]
.LBB92_5:
add	r0, sp, #108
ldr	r2, .LCPI92_1
movs	r3, #6
mov	r1, r5
bl	_ZN4lisp4lisp3val8LispList11expect_cons17h09878936b3701937E
ldr	r0, [sp, #108]
cmp	r0, #0
beq	.LBB92_8
ldr	r1, [sp, #112]
ldr	r2, [sp, #116]
stm	r6!, {r0, r1, r2}
.LBB92_7:
add	sp, #196
pop	{r4, r5, r6, r7, pc}
.LBB92_8:
str	r6, [sp, #44]
ldr	r6, [sp, #112]
ldr	r4, [r6]
ldr	r0, [r4, #44]
cmp	r0, #2
bhi	.LBB92_10
movs	r0, #7
b	.LBB92_11
.LBB92_10:
subs	r0, r0, #3
.LBB92_11:
adds	r4, #8
cmp	r0, #0
beq	.LBB92_16
cmp	r0, #5
bne	.LBB92_18
ldr	r6, [sp, #116]
add	r0, sp, #108
ldr	r2, .LCPI92_1
movs	r3, #6
mov	r1, r4
bl	_ZN4lisp4lisp3val8LispList11expect_cons17h09878936b3701937E
ldr	r0, [sp, #108]
cmp	r0, #0
bne	.LBB92_17
ldr	r4, [sp, #112]
ldr	r1, [sp, #116]
add	r0, sp, #108
bl	_ZN4lisp4lisp4eval6lambda44_$LT$impl$u20$lisp..lisp..env..SchemeEnv$GT$16eval_lambda_args17h7d8352f128f19eb8E
ldr	r0, [sp, #108]
cmp	r0, #0
beq	.LBB92_27
add	r0, sp, #108
adds	r0, r0, #4
add	r1, sp, #56
mov	r2, r1
ldm	r0!, {r3, r4, r5}
stm	r2!, {r3, r4, r5}
ldr	r4, [sp, #44]
ldm	r1!, {r0, r2, r3}
stm	r4!, {r0, r2, r3}
b	.LBB92_7
.LBB92_16:
add	r0, sp, #108
ldr	r2, .LCPI92_3
movs	r3, #22
mov	r1, r5
bl	_ZN4lisp4lisp3val8LispList11expect_cadr17hc60511602eada018E
ldr	r0, [sp, #108]
cmp	r0, #0
beq	.LBB92_24
.LBB92_17:
ldr	r1, [sp, #112]
ldr	r2, [sp, #116]
ldr	r3, [sp, #44]
str	r0, [r3]
str	r1, [r3, #4]
str	r2, [r3, #8]
b	.LBB92_7
.LBB92_18:
movs	r5, #0
str	r5, [sp, #116]
str	r5, [sp, #112]
movs	r0, #4
str	r0, [sp, #108]
ldr	r4, .LCPI92_5
mov	r1, r5
.LBB92_19:
cmp	r5, #37
beq	.LBB92_23
ldr	r2, [sp, #112]
cmp	r1, r2
bne	.LBB92_22
add	r0, sp, #108
movs	r1, #1
bl	_ZN4lisp4parm4heap3vec12Vec$LT$T$GT$14grow_amortized17h354e281ba8fc9017E
ldr	r0, [sp, #108]
ldr	r1, [sp, #116]
.LBB92_22:
ldrb	r2, [r4, r5]
lsls	r3, r1, #2
str	r2, [r0, r3]
adds	r1, r1, #1
str	r1, [sp, #116]
adds	r5, r5, #1
b	.LBB92_19
.LBB92_23:
add	r5, sp, #108
mov	r0, r6
mov	r1, r5
bl	_ZN63_$LT$lisp..Prc$LT$T$GT$$u20$as$u20$lisp..parm..tty..Display$GT$5write17haad684c6069ddddaE
ldr	r3, [sp, #44]
ldm	r5!, {r0, r1, r2}
stm	r3!, {r0, r1, r2}
b	.LBB92_7
.LBB92_24:
str	r4, [sp, #32]
ldr	r2, [sp, #112]
add	r0, sp, #56
ldr	r6, [sp, #52]
mov	r1, r6
bl	_ZN4lisp4lisp4eval44_$LT$impl$u20$lisp..lisp..env..SchemeEnv$GT$4eval17h99d6ff1af80af22dE
ldr	r0, [sp, #56]
cmp	r0, #0
ldr	r4, [sp, #44]
beq	.LBB92_29
ldr	r1, [sp, #60]
ldr	r2, [sp, #64]
.LBB92_26:
str	r0, [r4]
str	r1, [r4, #4]
str	r2, [r4, #8]
b	.LBB92_7
.LBB92_27:
str	r4, [sp, #36]
add	r0, sp, #108
adds	r1, r0, #4
add	r4, sp, #56
movs	r5, #24
mov	r0, r4
mov	r2, r5
bl	__aeabi_memcpy
add	r0, sp, #172
str	r0, [sp, #40]
mov	r1, r4
mov	r2, r5
bl	__aeabi_memcpy
add	r0, sp, #108
ldr	r1, [sp, #40]
mov	r2, r5
bl	__aeabi_memcpy
ldr	r1, [r6]
adds	r1, #8
add	r0, sp, #56
ldr	r2, .LCPI92_2
movs	r3, #21
bl	_ZN4lisp4lisp3val7LispVal11expect_list17h294e3e58bbc02a2aE
ldr	r0, [sp, #56]
cmp	r0, #0
beq	.LBB92_34
ldr	r1, [sp, #60]
ldr	r2, [sp, #64]
ldr	r3, [sp, #44]
stm	r3!, {r0, r1, r2}
add	r0, sp, #108
bl	_ZN4core3ptr49drop_in_place$LT$lisp..lisp..val..ClosureArgs$GT$17h8fa271c1e97a5ff3E
b	.LBB92_7
.LBB92_29:
ldr	r5, [sp, #60]
ldr	r0, [sp, #48]
cmp	r0, #0
beq	.LBB92_33
mov	r1, r5
adds	r1, #8
add	r0, sp, #108
ldr	r2, .LCPI92_4
movs	r6, #12
mov	r3, r6
bl	_ZN4lisp4lisp3val7LispVal15expect_callable17h22c946e83eddba85E
ldr	r0, [sp, #108]
cmp	r0, #0
beq	.LBB92_36
ldr	r1, [sp, #112]
ldr	r2, [sp, #116]
stm	r4!, {r0, r1, r2}
ldr	r0, [r5]
subs	r0, r0, #1
bne	.LBB92_32
b	.LBB92_7
.LBB92_32:
str	r0, [r5]
b	.LBB92_7
.LBB92_33:
str	r5, [sp, #28]
b	.LBB92_52
.LBB92_34:
ldr	r5, [sp, #36]
ldr	r3, [sp, #60]
ldr	r0, [sp, #48]
str	r0, [sp]
add	r0, sp, #160
add	r2, sp, #108
ldr	r6, [sp, #52]
mov	r1, r6
bl	_ZN4lisp4lisp4eval6lambda44_$LT$impl$u20$lisp..lisp..env..SchemeEnv$GT$12eval_closure17h809ecfc2c7829d5fE
ldr	r0, [sp, #160]
cmp	r0, #0
ldr	r4, [sp, #44]
beq	.LBB92_38
ldr	r1, [sp, #164]
ldr	r2, [sp, #168]
b	.LBB92_26
.LBB92_36:
str	r6, [sp, #48]
ldr	r4, [sp, #112]
movs	r0, #1
str	r0, [sp, #24]
lsls	r6, r0, #16
ldr	r0, [r4, #36]
cmp	r0, #2
str	r5, [sp, #28]
bne	.LBB92_41
add	r0, sp, #108
mov	r1, r4
bl	_ZN71_$LT$lisp..parm..heap..string..String$u20$as$u20$core..clone..Clone$GT$5clone17hcfb3fae59d8e5176E
movs	r0, #2
str	r0, [sp, #144]
ldr	r0, [r4, #12]
str	r0, [sp, #120]
b	.LBB92_49
.LBB92_38:
ldr	r0, [sp, #164]
str	r0, [sp, #48]
ldr	r1, [r5]
adds	r1, #8
add	r0, sp, #108
ldr	r2, .LCPI92_1
movs	r3, #6
bl	_ZN4lisp4lisp3val7LispVal13expect_symbol17h18bca5646ce7453aE
ldr	r0, [sp, #108]
cmp	r0, #0
beq	.LBB92_46
ldr	r1, [sp, #112]
ldr	r2, [sp, #116]
stm	r4!, {r0, r1, r2}
ldr	r1, [sp, #48]
ldr	r0, [r1]
subs	r0, r0, #1
bne	.LBB92_40
b	.LBB92_7
.LBB92_40:
str	r0, [r1]
b	.LBB92_7
.LBB92_41:
str	r6, [sp, #20]
mov	r0, r4
adds	r0, #36
str	r0, [sp, #16]
add	r0, sp, #160
mov	r1, r4
bl	_ZN68_$LT$core..option..Option$LT$T$GT$$u20$as$u20$core..clone..Clone$GT$5clone17he5634341463a3fd3E
ldr	r6, [r4, #12]
cmp	r6, #0
beq	.LBB92_47
str	r4, [sp, #12]
ldr	r0, [r4, #20]
ldr	r2, [sp, #48]
str	r0, [sp, #8]
muls	r2, r0, r2
ldr	r3, [sp, #20]
ldr	r4, [r3]
adds	r0, r2, r4
stm	r4!, {r2}
adds	r0, r0, #4
str	r0, [r3]
movs	r5, #0
str	r4, [sp, #4]
str	r4, [sp, #40]
.LBB92_43:
cmp	r2, #0
beq	.LBB92_45
str	r5, [sp, #36]
add	r5, sp, #108
mov	r0, r5
mov	r1, r6
str	r2, [sp, #48]
bl	_ZN71_$LT$lisp..parm..heap..string..String$u20$as$u20$core..clone..Clone$GT$5clone17hcfb3fae59d8e5176E
ldr	r4, [sp, #40]
mov	r0, r4
ldm	r5!, {r1, r2, r3}
stm	r0!, {r1, r2, r3}
ldr	r5, [sp, #36]
ldr	r2, [sp, #48]
subs	r2, #12
adds	r4, #12
str	r4, [sp, #40]
adds	r5, r5, #1
adds	r6, #12
b	.LBB92_43
.LBB92_45:
add	r0, sp, #172
adds	r0, #12
ldr	r4, [sp, #12]
mov	r1, r4
adds	r1, #24
bl	_ZN68_$LT$core..option..Option$LT$T$GT$$u20$as$u20$core..clone..Clone$GT$5clone17he5634341463a3fd3E
str	r5, [sp, #180]
ldr	r0, [sp, #8]
str	r0, [sp, #176]
ldr	r0, [sp, #4]
b	.LBB92_48
.LBB92_46:
ldr	r1, [sp, #112]
mov	r4, r6
add	r6, sp, #56
mov	r0, r6
bl	_ZN71_$LT$lisp..parm..heap..string..String$u20$as$u20$core..clone..Clone$GT$5clone17hcfb3fae59d8e5176E
mov	r0, r4
mov	r1, r6
ldr	r4, [sp, #44]
ldr	r2, [sp, #48]
b	.LBB92_53
.LBB92_47:
add	r0, sp, #172
adds	r0, r0, #4
mov	r1, r4
adds	r1, #16
bl	_ZN71_$LT$lisp..parm..heap..string..String$u20$as$u20$core..clone..Clone$GT$5clone17hcfb3fae59d8e5176E
movs	r0, #0
.LBB92_48:
str	r0, [sp, #172]
add	r5, sp, #108
mov	r0, r5
adds	r0, #36
ldr	r1, [sp, #16]
bl	_ZN64_$LT$lisp..lisp..val..LispList$u20$as$u20$core..clone..Clone$GT$5clone17h687c3353eb908fc9E
ldr	r4, [r4, #48]
ldr	r0, [r4]
adds	r0, r0, #1
str	r0, [r4]
add	r0, sp, #160
mov	r1, r5
ldm	r0!, {r2, r3, r6}
stm	r1!, {r2, r3, r6}
adds	r5, #12
add	r1, sp, #172
movs	r2, #24
mov	r0, r5
bl	__aeabi_memcpy
str	r4, [sp, #156]
ldr	r6, [sp, #20]
.LBB92_49:
add	r0, sp, #56
str	r0, [sp, #48]
add	r1, sp, #108
movs	r2, #52
str	r2, [sp, #40]
bl	__aeabi_memcpy
ldr	r4, [r6]
movs	r5, #64
str	r5, [r4]
mov	r0, r4
adds	r0, #68
str	r0, [r6]
movs	r0, #0
str	r0, [r4, #8]
ldr	r6, [sp, #24]
str	r6, [r4, #4]
mov	r0, r4
adds	r0, #12
ldr	r1, [sp, #48]
ldr	r2, [sp, #40]
bl	__aeabi_memcpy
strb	r6, [r4, r5]
ldr	r1, [sp, #28]
ldr	r0, [r1]
subs	r0, r0, #1
beq	.LBB92_51
str	r0, [r1]
.LBB92_51:
adds	r0, r4, #4
str	r0, [sp, #28]
ldr	r4, [sp, #44]
ldr	r6, [sp, #52]
.LBB92_52:
add	r5, sp, #108
mov	r0, r5
ldr	r1, [sp, #32]
bl	_ZN71_$LT$lisp..parm..heap..string..String$u20$as$u20$core..clone..Clone$GT$5clone17hcfb3fae59d8e5176E
mov	r0, r6
mov	r1, r5
ldr	r2, [sp, #28]
.LBB92_53:
bl	_ZN4lisp4lisp3env9SchemeEnv7set_new17h51bc5a0f06fd5278E
movs	r0, #1
lsls	r1, r0, #16
ldr	r2, [r1]
movs	r3, #64
str	r3, [r2]
mov	r3, r2
adds	r3, #68
str	r3, [r1]
movs	r1, #0
adds	r3, r2, #4
stm	r4!, {r1, r3}
movs	r3, #9
str	r3, [r2, #48]
str	r1, [r2, #8]
str	r0, [r2, #4]
b	.LBB92_7
.p2align	2
.LCPI92_0:
.long	.L__unnamed_118
.LCPI92_1:
.long	.L__unnamed_119
.LCPI92_2:
.long	.L__unnamed_120
.LCPI92_3:
.long	.L__unnamed_121
.LCPI92_4:
.long	.L__unnamed_122
.LCPI92_5:
.long	.L__unnamed_123
.Lfunc_end92:
.size	_ZN4lisp4lisp4eval5forms44_$LT$impl$u20$lisp..lisp..env..SchemeEnv$GT$11eval_define17h4e37423015730f5eE, .Lfunc_end92-_ZN4lisp4lisp4eval5forms44_$LT$impl$u20$lisp..lisp..env..SchemeEnv$GT$11eval_define17h4e37423015730f5eE
.cantunwind
.fnend

.section	".text._ZN4lisp4lisp4eval6lambda44_$LT$impl$u20$lisp..lisp..env..SchemeEnv$GT$16eval_lambda_args17h7d8352f128f19eb8E","ax",%progbits
.p2align	2
.type	_ZN4lisp4lisp4eval6lambda44_$LT$impl$u20$lisp..lisp..env..SchemeEnv$GT$16eval_lambda_args17h7d8352f128f19eb8E,%function
.code	16
.thumb_func
_ZN4lisp4lisp4eval6lambda44_$LT$impl$u20$lisp..lisp..env..SchemeEnv$GT$16eval_lambda_args17h7d8352f128f19eb8E:
.fnstart
.save	{r4, r5, r6, r7, lr}
push	{r4, r5, r6, r7, lr}
.setfp	r7, sp, #12
add	r7, sp, #12
.pad	#68
sub	sp, #68
mov	r6, r0
ldr	r5, [r1]
ldr	r0, [r5, #44]
cmp	r0, #2
bhi	.LBB93_2
movs	r0, #7
b	.LBB93_3
.LBB93_2:
subs	r0, r0, #3
.LBB93_3:
adds	r5, #8
cmp	r0, #0
beq	.LBB93_14
cmp	r0, #5
bne	.LBB93_15
movs	r0, #0
str	r0, [sp, #24]
str	r0, [sp, #4]
str	r0, [sp, #20]
movs	r0, #4
str	r0, [sp, #16]
str	r6, [sp, #8]
.LBB93_6:
ldr	r0, [r5]
cmp	r0, #0
beq	.LBB93_21
ldr	r1, [r5, #4]
str	r5, [sp, #12]
ldr	r5, [r5, #8]
ldr	r6, [r5, #44]
adds	r1, #8
add	r0, sp, #52
movs	r3, #6
ldr	r2, .LCPI93_0
bl	_ZN4lisp4lisp3val7LispVal13expect_symbol17h18bca5646ce7453aE
ldr	r4, [sp, #52]
cmp	r4, #0
bne	.LBB93_24
ldr	r1, [sp, #56]
add	r4, sp, #40
mov	r0, r4
bl	_ZN71_$LT$lisp..parm..heap..string..String$u20$as$u20$core..clone..Clone$GT$5clone17hcfb3fae59d8e5176E
add	r0, sp, #16
mov	r1, r4
bl	_ZN4lisp4parm4heap3vec12Vec$LT$T$GT$4push17h38e1f7c375a2dd72E
cmp	r6, #8
beq	.LBB93_10
ldr	r0, [sp, #12]
adds	r0, #8
str	r0, [sp, #4]
.LBB93_10:
cmp	r6, #8
beq	.LBB93_12
ldr	r5, .LCPI93_1
b	.LBB93_13
.LBB93_12:
adds	r5, #8
.LBB93_13:
ldr	r6, [sp, #8]
b	.LBB93_6
.LBB93_14:
add	r0, sp, #52
mov	r1, r5
bl	_ZN71_$LT$lisp..parm..heap..string..String$u20$as$u20$core..clone..Clone$GT$5clone17hcfb3fae59d8e5176E
ldr	r0, [sp, #60]
ldr	r3, [sp, #56]
ldr	r4, [sp, #52]
movs	r5, #0
b	.LBB93_30
.LBB93_15:
str	r1, [sp, #12]
movs	r4, #0
str	r4, [sp, #60]
str	r4, [sp, #56]
movs	r0, #4
str	r0, [sp, #52]
ldr	r5, .LCPI93_2
mov	r1, r4
.LBB93_16:
cmp	r4, #37
beq	.LBB93_20
ldr	r2, [sp, #56]
cmp	r1, r2
bne	.LBB93_19
add	r0, sp, #52
movs	r1, #1
bl	_ZN4lisp4parm4heap3vec12Vec$LT$T$GT$14grow_amortized17h354e281ba8fc9017E
ldr	r0, [sp, #52]
ldr	r1, [sp, #60]
.LBB93_19:
ldrb	r2, [r5, r4]
lsls	r3, r1, #2
str	r2, [r0, r3]
adds	r1, r1, #1
str	r1, [sp, #60]
adds	r4, r4, #1
b	.LBB93_16
.LBB93_20:
add	r5, sp, #52
ldr	r0, [sp, #12]
mov	r1, r5
bl	_ZN63_$LT$lisp..Prc$LT$T$GT$$u20$as$u20$lisp..parm..tty..Display$GT$5write17haad684c6069ddddaE
adds	r0, r6, #4
ldm	r5!, {r1, r2, r3}
stm	r0!, {r1, r2, r3}
b	.LBB93_26
.LBB93_21:
add	r0, sp, #16
add	r1, sp, #28
ldm	r0!, {r2, r3, r4}
stm	r1!, {r2, r3, r4}
ldr	r0, [sp, #4]
cmp	r0, #0
beq	.LBB93_27
ldr	r1, [r0]
add	r0, sp, #52
adds	r0, r0, #4
adds	r1, #8
ldr	r2, .LCPI93_0
movs	r3, #6
bl	_ZN4lisp4lisp3val7LispVal13expect_symbol17h18bca5646ce7453aE
ldr	r5, [sp, #60]
ldr	r4, [sp, #56]
cmp	r4, #0
beq	.LBB93_28
ldr	r6, [sp, #64]
add	r0, sp, #28
b	.LBB93_25
.LBB93_24:
ldr	r6, [sp, #60]
ldr	r5, [sp, #56]
add	r0, sp, #16
.LBB93_25:
bl	_ZN4core3ptr87drop_in_place$LT$lisp..parm..heap..vec..Vec$LT$lisp..parm..heap..string..String$GT$$GT$17h72f8ffaab59504caE
ldr	r0, [sp, #8]
adds	r1, r0, #4
stm	r1!, {r4, r5, r6}
mov	r6, r0
.LBB93_26:
movs	r0, #1
b	.LBB93_31
.LBB93_27:
movs	r0, #0
b	.LBB93_29
.LBB93_28:
add	r0, sp, #40
mov	r1, r5
bl	_ZN71_$LT$lisp..parm..heap..string..String$u20$as$u20$core..clone..Clone$GT$5clone17hcfb3fae59d8e5176E
add	r2, sp, #40
ldm	r2, {r0, r1, r2}
.LBB93_29:
ldr	r3, [sp, #24]
ldr	r4, [sp, #20]
ldr	r5, [sp, #16]
.LBB93_30:
str	r5, [r6, #4]
str	r4, [r6, #8]
str	r3, [r6, #12]
mov	r3, r6
adds	r3, #16
stm	r3!, {r0, r1, r2}
movs	r0, #0
.LBB93_31:
str	r0, [r6]
add	sp, #68
pop	{r4, r5, r6, r7, pc}
.p2align	2
.LCPI93_0:
.long	.L__unnamed_96
.LCPI93_1:
.long	.L__unnamed_22
.LCPI93_2:
.long	.L__unnamed_124
.Lfunc_end93:
.size	_ZN4lisp4lisp4eval6lambda44_$LT$impl$u20$lisp..lisp..env..SchemeEnv$GT$16eval_lambda_args17h7d8352f128f19eb8E, .Lfunc_end93-_ZN4lisp4lisp4eval6lambda44_$LT$impl$u20$lisp..lisp..env..SchemeEnv$GT$16eval_lambda_args17h7d8352f128f19eb8E
.cantunwind
.fnend

.section	".text._ZN4lisp4lisp4eval6lambda44_$LT$impl$u20$lisp..lisp..env..SchemeEnv$GT$12eval_closure17h809ecfc2c7829d5fE","ax",%progbits
.p2align	1
.type	_ZN4lisp4lisp4eval6lambda44_$LT$impl$u20$lisp..lisp..env..SchemeEnv$GT$12eval_closure17h809ecfc2c7829d5fE,%function
.code	16
.thumb_func
_ZN4lisp4lisp4eval6lambda44_$LT$impl$u20$lisp..lisp..env..SchemeEnv$GT$12eval_closure17h809ecfc2c7829d5fE:
.fnstart
.save	{r4, r5, r6, r7, lr}
push	{r4, r5, r6, r7, lr}
.setfp	r7, sp, #12
add	r7, sp, #12
.pad	#36
sub	sp, #36
str	r2, [sp, #12]
mov	r6, r1
str	r0, [sp, #20]
add	r0, sp, #24
str	r0, [sp, #16]
mov	r1, r3
bl	_ZN64_$LT$lisp..lisp..val..LispList$u20$as$u20$core..clone..Clone$GT$5clone17h687c3353eb908fc9E
ldr	r1, [r6]
str	r1, [sp, #8]
ldr	r0, [r1]
adds	r0, r0, #1
str	r0, [r1]
movs	r0, #1
lsls	r1, r0, #16
ldr	r4, [r1]
movs	r2, #64
str	r2, [sp, #4]
str	r2, [r4]
mov	r2, r4
adds	r2, #68
str	r2, [r1]
movs	r5, #0
str	r5, [r4, #12]
str	r5, [r4, #8]
str	r0, [r4, #4]
mov	r0, r4
adds	r0, #24
movs	r2, #24
ldr	r1, [sp, #12]
bl	__aeabi_memcpy
mov	r0, r4
adds	r0, #48
ldr	r6, [sp, #16]
ldm	r6!, {r1, r2, r3}
stm	r0!, {r1, r2, r3}
ldr	r0, [r7, #8]
ldr	r1, [sp, #4]
strb	r0, [r4, r1]
ldr	r0, [sp, #8]
str	r0, [r4, #60]
adds	r0, r4, #4
ldr	r1, [sp, #20]
str	r5, [r1]
str	r0, [r1, #4]
add	sp, #36
pop	{r4, r5, r6, r7, pc}
.Lfunc_end94:
.size	_ZN4lisp4lisp4eval6lambda44_$LT$impl$u20$lisp..lisp..env..SchemeEnv$GT$12eval_closure17h809ecfc2c7829d5fE, .Lfunc_end94-_ZN4lisp4lisp4eval6lambda44_$LT$impl$u20$lisp..lisp..env..SchemeEnv$GT$12eval_closure17h809ecfc2c7829d5fE
.cantunwind
.fnend

.section	".text._ZN4lisp4lisp4eval3let44_$LT$impl$u20$lisp..lisp..env..SchemeEnv$GT$16eval_let_binding17hbcfc74510f67e856E","ax",%progbits
.p2align	2
.type	_ZN4lisp4lisp4eval3let44_$LT$impl$u20$lisp..lisp..env..SchemeEnv$GT$16eval_let_binding17hbcfc74510f67e856E,%function
.code	16
.thumb_func
_ZN4lisp4lisp4eval3let44_$LT$impl$u20$lisp..lisp..env..SchemeEnv$GT$16eval_let_binding17hbcfc74510f67e856E:
.fnstart
.save	{r4, r5, r6, r7, lr}
push	{r4, r5, r6, r7, lr}
.setfp	r7, sp, #12
add	r7, sp, #12
.pad	#28
sub	sp, #28
mov	r5, r1
mov	r4, r0
add	r0, sp, #16
mov	r1, r2
bl	_ZN4lisp4lisp3val8LispList5get_n17h4104062bc77cc0bcE
ldr	r0, [sp, #16]
cmp	r0, #0
beq	.LBB95_3
ldr	r6, [sp, #20]
ldr	r1, [r0]
adds	r1, #8
add	r0, sp, #16
ldr	r2, .LCPI95_0
movs	r3, #11
bl	_ZN4lisp4lisp3val7LispVal13expect_symbol17h18bca5646ce7453aE
ldr	r0, [sp, #16]
cmp	r0, #0
beq	.LBB95_4
ldr	r1, [sp, #20]
ldr	r2, [sp, #24]
movs	r3, #0
str	r3, [r4]
adds	r3, r4, #4
stm	r3!, {r0, r1, r2}
b	.LBB95_7
.LBB95_3:
adds	r0, r4, #4
ldr	r1, .LCPI95_1
movs	r2, #38
bl	_ZN87_$LT$lisp..parm..heap..string..String$u20$as$u20$core..convert..From$LT$$RF$str$GT$$GT$4from17h25a10eb48256cf6dE
movs	r0, #0
str	r0, [r4]
b	.LBB95_7
.LBB95_4:
ldr	r1, [sp, #20]
add	r0, sp, #4
bl	_ZN71_$LT$lisp..parm..heap..string..String$u20$as$u20$core..clone..Clone$GT$5clone17hcfb3fae59d8e5176E
add	r0, sp, #16
mov	r1, r5
mov	r2, r6
bl	_ZN4lisp4lisp4eval44_$LT$impl$u20$lisp..lisp..env..SchemeEnv$GT$4eval17h99d6ff1af80af22dE
ldr	r0, [sp, #16]
cmp	r0, #0
beq	.LBB95_6
ldr	r1, [sp, #20]
ldr	r2, [sp, #24]
movs	r3, #0
str	r3, [r4]
adds	r3, r4, #4
stm	r3!, {r0, r1, r2}
add	r0, sp, #4
bl	_ZN4core3ptr53drop_in_place$LT$lisp..parm..heap..string..String$GT$17h255b53872c1e8529E
b	.LBB95_7
.LBB95_6:
ldr	r0, [sp, #20]
add	r1, sp, #4
mov	r2, r4
ldm	r1!, {r3, r5, r6}
stm	r2!, {r3, r5, r6}
str	r0, [r4, #12]
.LBB95_7:
add	sp, #28
pop	{r4, r5, r6, r7, pc}
.p2align	2
.LCPI95_0:
.long	.L__unnamed_125
.LCPI95_1:
.long	.L__unnamed_126
.Lfunc_end95:
.size	_ZN4lisp4lisp4eval3let44_$LT$impl$u20$lisp..lisp..env..SchemeEnv$GT$16eval_let_binding17hbcfc74510f67e856E, .Lfunc_end95-_ZN4lisp4lisp4eval3let44_$LT$impl$u20$lisp..lisp..env..SchemeEnv$GT$16eval_let_binding17hbcfc74510f67e856E
.cantunwind
.fnend

.section	".text._ZN4lisp4lisp4eval3let44_$LT$impl$u20$lisp..lisp..env..SchemeEnv$GT$8eval_let17h9c9d36645950e4f0E","ax",%progbits
.p2align	2
.type	_ZN4lisp4lisp4eval3let44_$LT$impl$u20$lisp..lisp..env..SchemeEnv$GT$8eval_let17h9c9d36645950e4f0E,%function
.code	16
.thumb_func
_ZN4lisp4lisp4eval3let44_$LT$impl$u20$lisp..lisp..env..SchemeEnv$GT$8eval_let17h9c9d36645950e4f0E:
.fnstart
.save	{r4, r5, r6, r7, lr}
push	{r4, r5, r6, r7, lr}
.setfp	r7, sp, #12
add	r7, sp, #12
.pad	#124
sub	sp, #124
str	r3, [sp, #36]
mov	r6, r2
mov	r4, r1
mov	r5, r0
mov	r0, r1
bl	_ZN4lisp4lisp3env9SchemeEnv10make_child17hc002d9f406dacb2fE
str	r0, [sp, #40]
add	r0, sp, #100
ldr	r2, .LCPI96_0
movs	r3, #35
mov	r1, r6
bl	_ZN4lisp4lisp3val8LispList11expect_cons17h09878936b3701937E
ldr	r0, [sp, #100]
cmp	r0, #0
beq	.LBB96_2
ldr	r1, [sp, #104]
ldr	r2, [sp, #108]
stm	r5!, {r0, r1, r2}
b	.LBB96_9
.LBB96_2:
str	r4, [sp, #28]
str	r5, [sp, #32]
ldr	r4, [sp, #108]
ldr	r0, [sp, #104]
ldr	r5, [r0]
ldr	r0, [r5, #44]
adds	r5, #8
cmp	r0, #3
bne	.LBB96_6
ldr	r1, [r4]
adds	r1, #8
add	r0, sp, #100
ldr	r2, .LCPI96_1
movs	r3, #3
bl	_ZN4lisp4lisp3val7LispVal11expect_list17h294e3e58bbc02a2aE
ldr	r0, [sp, #100]
cmp	r0, #0
bne	.LBB96_7
ldr	r1, [sp, #104]
add	r0, sp, #64
ldr	r2, .LCPI96_4
movs	r3, #18
bl	_ZN4lisp4lisp3val8LispList11expect_cons17h09878936b3701937E
ldr	r0, [sp, #64]
cmp	r0, #0
ldr	r4, [sp, #32]
beq	.LBB96_22
ldr	r1, [sp, #68]
ldr	r2, [sp, #72]
b	.LBB96_24
.LBB96_6:
add	r0, sp, #100
ldr	r2, .LCPI96_1
movs	r3, #3
mov	r1, r5
bl	_ZN4lisp4lisp3val7LispVal11expect_list17h294e3e58bbc02a2aE
ldr	r0, [sp, #100]
cmp	r0, #0
beq	.LBB96_12
.LBB96_7:
ldr	r1, [sp, #104]
ldr	r2, [sp, #108]
ldr	r3, [sp, #32]
str	r0, [r3]
str	r1, [r3, #4]
.LBB96_8:
str	r2, [r3, #8]
.LBB96_9:
ldr	r0, [sp, #40]
ldr	r1, [r0]
subs	r1, r1, #1
beq	.LBB96_11
str	r1, [r0]
.LBB96_11:
add	sp, #124
pop	{r4, r5, r6, r7, pc}
.LBB96_12:
str	r4, [sp, #24]
add	r6, sp, #40
ldr	r0, [sp, #36]
cmp	r0, #0
bne	.LBB96_14
ldr	r6, [sp, #28]
.LBB96_14:
ldr	r1, [sp, #104]
ldr	r4, .LCPI96_2
.LBB96_15:
ldr	r0, [r1]
cmp	r0, #0
beq	.LBB96_25
ldr	r5, [r1, #8]
ldr	r0, [r5, #44]
cmp	r0, #8
beq	.LBB96_18
mov	r5, r4
b	.LBB96_19
.LBB96_18:
adds	r5, #8
.LBB96_19:
ldr	r2, [r1, #4]
ldr	r0, [r2, #44]
cmp	r0, #8
bne	.LBB96_27
adds	r2, #8
add	r0, sp, #100
mov	r1, r6
bl	_ZN4lisp4lisp4eval3let44_$LT$impl$u20$lisp..lisp..env..SchemeEnv$GT$16eval_let_binding17hbcfc74510f67e856E
ldr	r0, [sp, #108]
ldr	r1, [sp, #104]
ldr	r2, [sp, #112]
ldr	r3, [sp, #100]
cmp	r3, #0
beq	.LBB96_33
str	r1, [sp, #104]
str	r3, [sp, #100]
str	r0, [sp, #108]
add	r0, sp, #40
add	r1, sp, #100
bl	_ZN4lisp4lisp3env9SchemeEnv3set17h96598a60942bfc2cE
mov	r1, r5
b	.LBB96_15
.LBB96_22:
ldr	r6, [sp, #72]
ldr	r0, [sp, #68]
ldr	r1, [r0]
adds	r1, #8
add	r0, sp, #100
ldr	r2, .LCPI96_1
movs	r3, #3
bl	_ZN4lisp4lisp3val7LispVal11expect_list17h294e3e58bbc02a2aE
ldr	r0, [sp, #100]
cmp	r0, #0
beq	.LBB96_34
ldr	r1, [sp, #104]
ldr	r2, [sp, #108]
.LBB96_24:
str	r0, [r4]
str	r1, [r4, #4]
str	r2, [r4, #8]
b	.LBB96_9
.LBB96_25:
ldr	r0, [sp, #24]
ldr	r1, [r0]
adds	r1, #8
add	r0, sp, #100
ldr	r2, .LCPI96_4
movs	r3, #18
bl	_ZN4lisp4lisp3val7LispVal11expect_list17h294e3e58bbc02a2aE
ldr	r0, [sp, #100]
cmp	r0, #0
bne	.LBB96_7
ldr	r2, [sp, #104]
add	r1, sp, #40
ldr	r0, [sp, #32]
bl	_ZN4lisp4lisp4eval44_$LT$impl$u20$lisp..lisp..env..SchemeEnv$GT$10eval_begin17ha4e7048124b69c98E
b	.LBB96_9
.LBB96_27:
movs	r5, #0
str	r5, [sp, #108]
str	r5, [sp, #104]
movs	r0, #4
str	r0, [sp, #100]
adds	r4, r1, #4
ldr	r6, .LCPI96_3
mov	r1, r5
.LBB96_28:
cmp	r5, #24
beq	.LBB96_32
ldr	r2, [sp, #104]
cmp	r1, r2
bne	.LBB96_31
add	r0, sp, #100
movs	r1, #1
bl	_ZN4lisp4parm4heap3vec12Vec$LT$T$GT$14grow_amortized17h354e281ba8fc9017E
ldr	r0, [sp, #100]
ldr	r1, [sp, #108]
.LBB96_31:
ldrb	r2, [r6, r5]
lsls	r3, r1, #2
str	r2, [r0, r3]
adds	r1, r1, #1
str	r1, [sp, #108]
adds	r5, r5, #1
b	.LBB96_28
.LBB96_32:
add	r5, sp, #100
mov	r0, r4
mov	r1, r5
bl	_ZN63_$LT$lisp..Prc$LT$T$GT$$u20$as$u20$lisp..parm..tty..Display$GT$5write17haad684c6069ddddaE
ldr	r3, [sp, #32]
ldm	r5!, {r0, r1, r2}
stm	r3!, {r0, r1, r2}
b	.LBB96_9
.LBB96_33:
ldr	r3, [sp, #32]
str	r1, [r3]
str	r0, [r3, #4]
b	.LBB96_8
.LBB96_34:
str	r6, [sp, #12]
str	r5, [sp, #4]
ldr	r4, [sp, #104]
movs	r0, #0
str	r0, [sp, #52]
str	r0, [sp, #24]
str	r0, [sp, #48]
movs	r0, #4
str	r0, [sp, #8]
str	r0, [sp, #44]
ldr	r0, [sp, #28]
bl	_ZN4lisp4lisp3env9SchemeEnv10make_child17hc002d9f406dacb2fE
str	r0, [sp, #20]
str	r0, [sp, #56]
add	r0, sp, #56
bl	_ZN4lisp4lisp3env9SchemeEnv10make_child17hc002d9f406dacb2fE
str	r0, [sp, #16]
str	r0, [sp, #60]
.LBB96_35:
ldr	r6, [r4]
cmp	r6, #0
beq	.LBB96_42
ldr	r5, [r4, #8]
ldr	r0, [r5, #44]
cmp	r0, #8
beq	.LBB96_38
ldr	r5, .LCPI96_2
b	.LBB96_39
.LBB96_38:
adds	r5, #8
.LBB96_39:
ldr	r3, [sp, #24]
ldr	r2, [r4, #4]
ldr	r0, [r2, #44]
cmp	r0, #8
bne	.LBB96_44
str	r5, [sp, #36]
adds	r2, #8
add	r0, sp, #100
ldr	r1, [sp, #28]
bl	_ZN4lisp4lisp4eval3let44_$LT$impl$u20$lisp..lisp..env..SchemeEnv$GT$16eval_let_binding17hbcfc74510f67e856E
ldr	r0, [sp, #108]
ldr	r1, [sp, #104]
ldr	r5, [sp, #112]
ldr	r2, [sp, #100]
cmp	r2, #0
beq	.LBB96_50
str	r1, [sp, #68]
str	r2, [sp, #64]
str	r0, [sp, #72]
add	r4, sp, #100
add	r6, sp, #64
mov	r0, r4
mov	r1, r6
bl	_ZN71_$LT$lisp..parm..heap..string..String$u20$as$u20$core..clone..Clone$GT$5clone17hcfb3fae59d8e5176E
add	r0, sp, #60
mov	r1, r4
mov	r2, r5
bl	_ZN4lisp4lisp3env9SchemeEnv3set17h96598a60942bfc2cE
add	r1, sp, #100
mov	r0, r1
ldm	r6!, {r2, r3, r4}
stm	r0!, {r2, r3, r4}
add	r0, sp, #44
bl	_ZN4lisp4parm4heap3vec12Vec$LT$T$GT$4push17h38e1f7c375a2dd72E
ldr	r4, [sp, #36]
b	.LBB96_35
.LBB96_42:
add	r0, sp, #44
add	r1, sp, #64
ldm	r0!, {r2, r3, r4}
stm	r1!, {r2, r3, r4}
movs	r4, #0
str	r4, [sp, #76]
ldr	r0, [sp, #12]
ldr	r1, [r0]
adds	r1, #8
add	r0, sp, #100
ldr	r2, .LCPI96_4
movs	r3, #18
bl	_ZN4lisp4lisp3val7LispVal11expect_list17h294e3e58bbc02a2aE
ldr	r0, [sp, #100]
cmp	r0, #0
beq	.LBB96_59
ldr	r1, [sp, #104]
ldr	r2, [sp, #108]
ldr	r3, [sp, #32]
stm	r3!, {r0, r1, r2}
add	r0, sp, #64
bl	_ZN4core3ptr49drop_in_place$LT$lisp..lisp..val..ClosureArgs$GT$17h8fa271c1e97a5ff3E
b	.LBB96_51
.LBB96_44:
str	r3, [sp, #108]
str	r3, [sp, #104]
ldr	r0, [sp, #8]
str	r0, [sp, #100]
adds	r1, r4, #4
str	r1, [sp, #36]
mov	r4, r0
ldr	r5, .LCPI96_3
mov	r0, r3
.LBB96_45:
cmp	r3, #24
beq	.LBB96_49
ldr	r1, [sp, #104]
cmp	r0, r1
bne	.LBB96_48
add	r0, sp, #100
movs	r1, #1
mov	r4, r3
bl	_ZN4lisp4parm4heap3vec12Vec$LT$T$GT$14grow_amortized17h354e281ba8fc9017E
mov	r3, r4
ldr	r4, [sp, #100]
ldr	r0, [sp, #108]
.LBB96_48:
ldrb	r1, [r5, r3]
lsls	r2, r0, #2
str	r1, [r4, r2]
adds	r0, r0, #1
str	r0, [sp, #108]
adds	r3, r3, #1
b	.LBB96_45
.LBB96_49:
add	r5, sp, #100
ldr	r0, [sp, #36]
mov	r1, r5
bl	_ZN63_$LT$lisp..Prc$LT$T$GT$$u20$as$u20$lisp..parm..tty..Display$GT$5write17haad684c6069ddddaE
ldr	r3, [sp, #32]
ldm	r5!, {r0, r1, r2}
stm	r3!, {r0, r1, r2}
ldr	r1, [sp, #60]
b	.LBB96_52
.LBB96_50:
ldr	r2, [sp, #32]
str	r1, [r2]
str	r0, [r2, #4]
str	r5, [r2, #8]
.LBB96_51:
ldr	r1, [sp, #16]
.LBB96_52:
ldr	r2, [sp, #20]
.LBB96_53:
ldr	r0, [r1]
subs	r0, r0, #1
beq	.LBB96_55
str	r0, [r1]
.LBB96_55:
ldr	r0, [r2]
subs	r0, r0, #1
beq	.LBB96_57
str	r0, [r2]
.LBB96_57:
cmp	r6, #0
bne	.LBB96_58
b	.LBB96_9
.LBB96_58:
add	r0, sp, #44
bl	_ZN4core3ptr87drop_in_place$LT$lisp..parm..heap..vec..Vec$LT$lisp..parm..heap..string..String$GT$$GT$17h72f8ffaab59504caE
b	.LBB96_9
.LBB96_59:
ldr	r0, [sp, #104]
str	r0, [sp, #36]
add	r5, sp, #100
add	r1, sp, #64
movs	r2, #24
mov	r0, r5
bl	__aeabi_memcpy
str	r4, [sp]
ldr	r4, [sp, #36]
add	r0, sp, #88
add	r1, sp, #56
mov	r2, r5
mov	r3, r4
bl	_ZN4lisp4lisp4eval6lambda44_$LT$impl$u20$lisp..lisp..env..SchemeEnv$GT$12eval_closure17h809ecfc2c7829d5fE
ldr	r0, [sp, #88]
cmp	r0, #0
beq	.LBB96_61
ldr	r1, [sp, #92]
ldr	r2, [sp, #96]
ldr	r3, [sp, #32]
stm	r3!, {r0, r1, r2}
ldr	r2, [sp, #20]
ldr	r1, [sp, #16]
b	.LBB96_53
.LBB96_61:
ldr	r5, [sp, #92]
add	r6, sp, #100
mov	r0, r6
ldr	r1, [sp, #4]
bl	_ZN71_$LT$lisp..parm..heap..string..String$u20$as$u20$core..clone..Clone$GT$5clone17hcfb3fae59d8e5176E
add	r0, sp, #56
mov	r1, r6
mov	r2, r5
bl	_ZN4lisp4lisp3env9SchemeEnv3set17h96598a60942bfc2cE
add	r1, sp, #60
ldr	r0, [sp, #32]
mov	r2, r4
bl	_ZN4lisp4lisp4eval44_$LT$impl$u20$lisp..lisp..env..SchemeEnv$GT$10eval_begin17ha4e7048124b69c98E
ldr	r0, [sp, #60]
ldr	r1, [r0]
subs	r1, r1, #1
beq	.LBB96_63
str	r1, [r0]
.LBB96_63:
ldr	r1, [sp, #20]
ldr	r0, [r1]
subs	r0, r0, #1
bne	.LBB96_64
b	.LBB96_9
.LBB96_64:
str	r0, [r1]
b	.LBB96_9
.p2align	2
.LCPI96_0:
.long	.L__unnamed_127
.LCPI96_1:
.long	.L__unnamed_128
.LCPI96_2:
.long	.L__unnamed_22
.LCPI96_3:
.long	.L__unnamed_129
.LCPI96_4:
.long	.L__unnamed_130
.Lfunc_end96:
.size	_ZN4lisp4lisp4eval3let44_$LT$impl$u20$lisp..lisp..env..SchemeEnv$GT$8eval_let17h9c9d36645950e4f0E, .Lfunc_end96-_ZN4lisp4lisp4eval3let44_$LT$impl$u20$lisp..lisp..env..SchemeEnv$GT$8eval_let17h9c9d36645950e4f0E
.cantunwind
.fnend

.section	".text._ZN4lisp4lisp4eval5quote44_$LT$impl$u20$lisp..lisp..env..SchemeEnv$GT$15eval_quasiquote17had9eeb35df2b5e0fE","ax",%progbits
.p2align	2
.type	_ZN4lisp4lisp4eval5quote44_$LT$impl$u20$lisp..lisp..env..SchemeEnv$GT$15eval_quasiquote17had9eeb35df2b5e0fE,%function
.code	16
.thumb_func
_ZN4lisp4lisp4eval5quote44_$LT$impl$u20$lisp..lisp..env..SchemeEnv$GT$15eval_quasiquote17had9eeb35df2b5e0fE:
.fnstart
.save	{r4, r5, r6, r7, lr}
push	{r4, r5, r6, r7, lr}
.setfp	r7, sp, #12
add	r7, sp, #12
.pad	#44
sub	sp, #44
ldr	r6, [r2]
ldr	r2, [r6, #44]
cmp	r2, #8
bne	.LBB97_4
ldr	r2, [r6, #8]
cmp	r2, #1
bne	.LBB97_4
ldr	r5, [r6, #12]
ldr	r2, [r5, #44]
cmp	r2, #2
str	r0, [sp, #12]
bhi	.LBB97_5
movs	r0, #7
b	.LBB97_6
.LBB97_4:
movs	r1, #0
stm	r0!, {r1, r6}
ldr	r0, [r6]
adds	r0, r0, #1
str	r0, [r6]
b	.LBB97_24
.LBB97_5:
subs	r0, r2, #3
.LBB97_6:
mov	r4, r6
adds	r4, #16
mov	r2, r5
adds	r2, #8
cmp	r0, #0
beq	.LBB97_14
cmp	r0, #5
bne	.LBB97_21
ldr	r0, [r2]
cmp	r0, #1
bne	.LBB97_21
ldr	r0, [r5, #12]
ldr	r2, [r0, #44]
cmp	r2, #3
bne	.LBB97_21
str	r1, [sp, #8]
adds	r0, #8
str	r0, [sp, #16]
add	r0, sp, #16
ldr	r1, .LCPI97_0
bl	_ZN4core3cmp5impls69_$LT$impl$u20$core..cmp..PartialEq$LT$$RF$B$GT$$u20$for$u20$$RF$A$GT$2eq17h27a051c63443aa73E
cmp	r0, #0
beq	.LBB97_20
adds	r5, #16
add	r0, sp, #32
ldr	r2, .LCPI97_1
movs	r3, #16
mov	r1, r5
bl	_ZN4lisp4lisp4eval5quote44_$LT$impl$u20$lisp..lisp..env..SchemeEnv$GT$15eval_quasiquote10expect_one17h5a7b54c29c67e32dE
ldr	r0, [sp, #32]
cmp	r0, #0
bne	.LBB97_22
ldr	r2, [sp, #36]
add	r0, sp, #20
ldr	r6, [sp, #8]
mov	r1, r6
bl	_ZN4lisp4lisp4eval44_$LT$impl$u20$lisp..lisp..env..SchemeEnv$GT$4eval17h99d6ff1af80af22dE
ldr	r0, [sp, #20]
cmp	r0, #0
beq	.LBB97_29
ldr	r1, [sp, #24]
ldr	r2, [sp, #28]
b	.LBB97_23
.LBB97_14:
mov	r5, r1
str	r2, [sp, #20]
add	r0, sp, #20
ldr	r1, .LCPI97_3
bl	_ZN4core3cmp5impls69_$LT$impl$u20$core..cmp..PartialEq$LT$$RF$B$GT$$u20$for$u20$$RF$A$GT$2eq17h27a051c63443aa73E
cmp	r0, #0
beq	.LBB97_17
add	r0, sp, #32
ldr	r2, .LCPI97_5
movs	r3, #7
mov	r1, r4
bl	_ZN4lisp4lisp4eval5quote44_$LT$impl$u20$lisp..lisp..env..SchemeEnv$GT$15eval_quasiquote10expect_one17h5a7b54c29c67e32dE
ldr	r0, [sp, #32]
cmp	r0, #0
bne	.LBB97_22
ldr	r2, [sp, #36]
ldr	r0, [sp, #12]
mov	r1, r5
bl	_ZN4lisp4lisp4eval44_$LT$impl$u20$lisp..lisp..env..SchemeEnv$GT$4eval17h99d6ff1af80af22dE
b	.LBB97_24
.LBB97_17:
add	r0, sp, #20
ldr	r1, .LCPI97_0
bl	_ZN4core3cmp5impls69_$LT$impl$u20$core..cmp..PartialEq$LT$$RF$B$GT$$u20$for$u20$$RF$A$GT$2eq17h27a051c63443aa73E
cmp	r0, #0
beq	.LBB97_19
ldr	r1, .LCPI97_4
movs	r2, #42
ldr	r0, [sp, #12]
bl	_ZN87_$LT$lisp..parm..heap..string..String$u20$as$u20$core..convert..From$LT$$RF$str$GT$$GT$4from17h25a10eb48256cf6dE
b	.LBB97_24
.LBB97_19:
mov	r1, r5
b	.LBB97_21
.LBB97_20:
ldr	r1, [sp, #8]
.LBB97_21:
adds	r6, #12
add	r0, sp, #32
mov	r2, r6
mov	r6, r1
bl	_ZN4lisp4lisp4eval5quote44_$LT$impl$u20$lisp..lisp..env..SchemeEnv$GT$15eval_quasiquote17had9eeb35df2b5e0fE
ldr	r0, [sp, #32]
cmp	r0, #0
beq	.LBB97_25
.LBB97_22:
ldr	r1, [sp, #36]
ldr	r2, [sp, #40]
.LBB97_23:
ldr	r3, [sp, #12]
str	r0, [r3]
str	r1, [r3, #4]
str	r2, [r3, #8]
.LBB97_24:
add	sp, #44
pop	{r4, r5, r6, r7, pc}
.LBB97_25:
ldr	r5, [sp, #36]
add	r0, sp, #32
mov	r1, r6
mov	r2, r4
bl	_ZN4lisp4lisp4eval5quote44_$LT$impl$u20$lisp..lisp..env..SchemeEnv$GT$15eval_quasiquote17had9eeb35df2b5e0fE
ldr	r0, [sp, #32]
cmp	r0, #0
beq	.LBB97_28
ldr	r1, [sp, #36]
ldr	r2, [sp, #40]
ldr	r3, [sp, #12]
stm	r3!, {r0, r1, r2}
ldr	r0, [r5]
subs	r0, r0, #1
beq	.LBB97_24
str	r0, [r5]
b	.LBB97_24
.LBB97_28:
ldr	r2, [sp, #36]
movs	r0, #1
lsls	r3, r0, #16
ldr	r1, [r3]
movs	r4, #64
str	r4, [r1]
mov	r4, r1
adds	r4, #68
str	r4, [r3]
movs	r3, #0
adds	r4, r1, #4
ldr	r6, [sp, #12]
stm	r6!, {r3, r4}
movs	r4, #8
str	r4, [r1, #48]
str	r2, [r1, #20]
str	r5, [r1, #16]
str	r0, [r1, #12]
str	r3, [r1, #8]
str	r0, [r1, #4]
b	.LBB97_24
.LBB97_29:
ldr	r0, [sp, #24]
str	r0, [sp, #4]
add	r0, sp, #32
mov	r1, r6
mov	r2, r4
bl	_ZN4lisp4lisp4eval5quote44_$LT$impl$u20$lisp..lisp..env..SchemeEnv$GT$15eval_quasiquote17had9eeb35df2b5e0fE
ldr	r0, [sp, #32]
cmp	r0, #0
beq	.LBB97_31
ldr	r1, [sp, #36]
ldr	r2, [sp, #40]
ldr	r3, [sp, #12]
stm	r3!, {r0, r1, r2}
ldr	r1, [sp, #4]
b	.LBB97_47
.LBB97_31:
ldr	r4, [sp, #36]
ldr	r0, [r4, #44]
cmp	r0, #8
bne	.LBB97_34
ldr	r0, [r4, #8]
cmp	r0, #0
bne	.LBB97_34
movs	r0, #0
ldr	r1, [sp, #12]
str	r0, [r1]
ldr	r0, [sp, #4]
str	r0, [r1, #4]
mov	r1, r0
ldr	r0, [r0]
adds	r0, r0, #1
str	r0, [r1]
b	.LBB97_45
.LBB97_34:
movs	r0, #1
lsls	r0, r0, #16
ldr	r1, [r0]
movs	r2, #64
str	r2, [r1]
mov	r2, r1
adds	r2, #68
str	r2, [r0]
movs	r0, #8
str	r0, [r1, #48]
movs	r5, #0
str	r5, [r1, #12]
str	r5, [r1, #8]
movs	r0, #3
str	r0, [r1, #4]
adds	r0, r1, #4
str	r0, [sp, #28]
str	r0, [sp, #24]
str	r0, [sp, #20]
ldr	r1, [sp, #4]
adds	r1, #8
add	r0, sp, #32
ldr	r2, .LCPI97_1
movs	r3, #16
bl	_ZN4lisp4lisp3val7LispVal11expect_list17h294e3e58bbc02a2aE
ldr	r0, [sp, #32]
cmp	r0, #0
beq	.LBB97_36
ldr	r1, [sp, #40]
ldr	r2, [sp, #36]
b	.LBB97_43
.LBB97_36:
str	r4, [sp, #8]
adds	r4, #8
str	r4, [sp]
ldr	r4, [sp, #36]
.LBB97_37:
ldr	r0, [r4]
cmp	r0, #0
beq	.LBB97_41
ldr	r1, [r4, #4]
ldr	r4, [r4, #8]
ldr	r6, [r4, #44]
ldr	r0, [r1]
adds	r0, r0, #1
str	r0, [r1]
add	r0, sp, #20
bl	_ZN4lisp4lisp3val15LispListBuilder4push17h6b8263f332e9e854E
cmp	r6, #8
beq	.LBB97_40
ldr	r4, .LCPI97_2
b	.LBB97_37
.LBB97_40:
adds	r4, #8
b	.LBB97_37
.LBB97_41:
add	r0, sp, #32
ldr	r2, .LCPI97_1
movs	r3, #16
ldr	r1, [sp]
bl	_ZN4lisp4lisp3val7LispVal11expect_list17h294e3e58bbc02a2aE
ldr	r0, [sp, #32]
cmp	r0, #0
beq	.LBB97_49
ldr	r1, [sp, #40]
ldr	r2, [sp, #36]
ldr	r4, [sp, #8]
.LBB97_43:
ldr	r3, [sp, #12]
stm	r3!, {r0, r2}
str	r1, [r3]
add	r0, sp, #20
bl	_ZN4core3ptr53drop_in_place$LT$lisp..lisp..val..LispListBuilder$GT$17h93e030bd379a099cE
.LBB97_44:
ldr	r1, [sp, #4]
.LBB97_45:
ldr	r0, [r4]
subs	r0, r0, #1
beq	.LBB97_47
str	r0, [r4]
.LBB97_47:
ldr	r0, [r1]
subs	r0, r0, #1
bne	.LBB97_48
b	.LBB97_24
.LBB97_48:
str	r0, [r1]
b	.LBB97_24
.LBB97_49:
str	r5, [sp]
ldr	r6, [sp, #36]
ldr	r5, .LCPI97_2
.LBB97_50:
ldr	r0, [r6]
cmp	r0, #0
beq	.LBB97_54
ldr	r1, [r6, #4]
ldr	r6, [r6, #8]
ldr	r4, [r6, #44]
ldr	r0, [r1]
adds	r0, r0, #1
str	r0, [r1]
add	r0, sp, #20
bl	_ZN4lisp4lisp3val15LispListBuilder4push17h6b8263f332e9e854E
cmp	r4, #8
beq	.LBB97_53
mov	r6, r5
b	.LBB97_50
.LBB97_53:
adds	r6, #8
b	.LBB97_50
.LBB97_54:
add	r1, sp, #20
add	r0, sp, #32
mov	r2, r0
ldm	r1!, {r3, r4, r6}
stm	r2!, {r3, r4, r6}
bl	_ZN4lisp4lisp3val15LispListBuilder6finish17hb1784b4a5d2bfc82E
ldr	r1, [sp, #12]
ldr	r2, [sp]
str	r2, [r1]
str	r0, [r1, #4]
ldr	r4, [sp, #8]
b	.LBB97_44
.p2align	2
.LCPI97_0:
.long	.L__unnamed_131
.LCPI97_1:
.long	.L__unnamed_132
.LCPI97_2:
.long	.L__unnamed_22
.LCPI97_3:
.long	.L__unnamed_133
.LCPI97_4:
.long	.L__unnamed_134
.LCPI97_5:
.long	.L__unnamed_135
.Lfunc_end97:
.size	_ZN4lisp4lisp4eval5quote44_$LT$impl$u20$lisp..lisp..env..SchemeEnv$GT$15eval_quasiquote17had9eeb35df2b5e0fE, .Lfunc_end97-_ZN4lisp4lisp4eval5quote44_$LT$impl$u20$lisp..lisp..env..SchemeEnv$GT$15eval_quasiquote17had9eeb35df2b5e0fE
.cantunwind
.fnend

.section	".text._ZN4lisp4lisp4eval5quote44_$LT$impl$u20$lisp..lisp..env..SchemeEnv$GT$15eval_quasiquote10expect_one17h5a7b54c29c67e32dE","ax",%progbits
.p2align	2
.type	_ZN4lisp4lisp4eval5quote44_$LT$impl$u20$lisp..lisp..env..SchemeEnv$GT$15eval_quasiquote10expect_one17h5a7b54c29c67e32dE,%function
.code	16
.thumb_func
_ZN4lisp4lisp4eval5quote44_$LT$impl$u20$lisp..lisp..env..SchemeEnv$GT$15eval_quasiquote10expect_one17h5a7b54c29c67e32dE:
.fnstart
.save	{r4, r5, r6, r7, lr}
push	{r4, r5, r6, r7, lr}
.setfp	r7, sp, #12
add	r7, sp, #12
.pad	#28
sub	sp, #28
mov	r5, r3
mov	r6, r2
mov	r4, r0
ldr	r1, [r1]
adds	r1, #8
add	r0, sp, #16
bl	_ZN4lisp4lisp3val7LispVal11expect_list17h294e3e58bbc02a2aE
ldr	r0, [sp, #16]
cmp	r0, #0
beq	.LBB98_2
ldr	r1, [sp, #20]
ldr	r2, [sp, #24]
b	.LBB98_4
.LBB98_2:
ldr	r1, [sp, #20]
add	r0, sp, #4
mov	r2, r6
mov	r3, r5
bl	_ZN4lisp4lisp3val8LispList11expect_cons17h09878936b3701937E
ldr	r0, [sp, #4]
cmp	r0, #0
beq	.LBB98_6
ldr	r1, [sp, #8]
ldr	r2, [sp, #12]
.LBB98_4:
str	r0, [r4]
str	r1, [r4, #4]
str	r2, [r4, #8]
.LBB98_5:
add	sp, #28
pop	{r4, r5, r6, r7, pc}
.LBB98_6:
ldr	r5, [sp, #8]
ldr	r0, [sp, #12]
ldr	r0, [r0]
adds	r0, #8
ldr	r1, .LCPI98_0
bl	_ZN4lisp4lisp3val7LispVal5equal17h87d04ea4fbf40e9eE
cmp	r0, #0
beq	.LBB98_8
movs	r0, #0
stm	r4!, {r0, r5}
b	.LBB98_5
.LBB98_8:
ldr	r1, .LCPI98_1
movs	r2, #24
mov	r0, r4
bl	_ZN87_$LT$lisp..parm..heap..string..String$u20$as$u20$core..convert..From$LT$$RF$str$GT$$GT$4from17h25a10eb48256cf6dE
b	.LBB98_5
.p2align	2
.LCPI98_0:
.long	.L__unnamed_136
.LCPI98_1:
.long	.L__unnamed_137
.Lfunc_end98:
.size	_ZN4lisp4lisp4eval5quote44_$LT$impl$u20$lisp..lisp..env..SchemeEnv$GT$15eval_quasiquote10expect_one17h5a7b54c29c67e32dE, .Lfunc_end98-_ZN4lisp4lisp4eval5quote44_$LT$impl$u20$lisp..lisp..env..SchemeEnv$GT$15eval_quasiquote10expect_one17h5a7b54c29c67e32dE
.cantunwind
.fnend

.section	".text._ZN4lisp4lisp4eval44_$LT$impl$u20$lisp..lisp..env..SchemeEnv$GT$10eval_begin17ha4e7048124b69c98E","ax",%progbits
.p2align	2
.type	_ZN4lisp4lisp4eval44_$LT$impl$u20$lisp..lisp..env..SchemeEnv$GT$10eval_begin17ha4e7048124b69c98E,%function
.code	16
.thumb_func
_ZN4lisp4lisp4eval44_$LT$impl$u20$lisp..lisp..env..SchemeEnv$GT$10eval_begin17ha4e7048124b69c98E:
.fnstart
.save	{r4, r5, r6, r7, lr}
push	{r4, r5, r6, r7, lr}
.setfp	r7, sp, #12
add	r7, sp, #12
.pad	#28
sub	sp, #28
str	r1, [sp, #12]
str	r0, [sp, #8]
movs	r0, #1
lsls	r1, r0, #16
ldr	r3, [r1]
movs	r4, #64
str	r4, [r3]
mov	r4, r3
adds	r4, #68
str	r4, [r1]
movs	r1, #9
str	r1, [r3, #48]
movs	r1, #0
str	r1, [sp, #4]
str	r1, [r3, #8]
str	r0, [r3, #4]
adds	r0, r3, #4
.LBB99_1:
mov	r6, r0
ldr	r0, [r2]
cmp	r0, #0
beq	.LBB99_8
ldr	r4, [r2, #8]
ldr	r5, [r4, #44]
adds	r2, r2, #4
add	r0, sp, #16
ldr	r1, [sp, #12]
bl	_ZN4lisp4lisp4eval44_$LT$impl$u20$lisp..lisp..env..SchemeEnv$GT$4eval17h99d6ff1af80af22dE
cmp	r5, #8
beq	.LBB99_4
ldr	r2, .LCPI99_0
b	.LBB99_5
.LBB99_4:
adds	r4, #8
mov	r2, r4
.LBB99_5:
ldr	r0, [sp, #20]
ldr	r1, [sp, #16]
cmp	r1, #0
bne	.LBB99_9
ldr	r1, [r6]
subs	r1, r1, #1
beq	.LBB99_1
str	r1, [r6]
b	.LBB99_1
.LBB99_8:
ldr	r0, [sp, #8]
ldr	r1, [sp, #4]
stm	r0!, {r1, r6}
b	.LBB99_11
.LBB99_9:
ldr	r2, [sp, #24]
ldr	r3, [sp, #8]
str	r1, [r3]
str	r0, [r3, #4]
str	r2, [r3, #8]
ldr	r0, [r6]
subs	r0, r0, #1
beq	.LBB99_11
str	r0, [r6]
.LBB99_11:
add	sp, #28
pop	{r4, r5, r6, r7, pc}
.p2align	2
.LCPI99_0:
.long	.L__unnamed_22
.Lfunc_end99:
.size	_ZN4lisp4lisp4eval44_$LT$impl$u20$lisp..lisp..env..SchemeEnv$GT$10eval_begin17ha4e7048124b69c98E, .Lfunc_end99-_ZN4lisp4lisp4eval44_$LT$impl$u20$lisp..lisp..env..SchemeEnv$GT$10eval_begin17ha4e7048124b69c98E
.cantunwind
.fnend

.section	".text._ZN4lisp4lisp4eval44_$LT$impl$u20$lisp..lisp..env..SchemeEnv$GT$4eval17h99d6ff1af80af22dE","ax",%progbits
.p2align	2
.type	_ZN4lisp4lisp4eval44_$LT$impl$u20$lisp..lisp..env..SchemeEnv$GT$4eval17h99d6ff1af80af22dE,%function
.code	16
.thumb_func
_ZN4lisp4lisp4eval44_$LT$impl$u20$lisp..lisp..env..SchemeEnv$GT$4eval17h99d6ff1af80af22dE:
.fnstart
.save	{r4, r5, r6, r7, lr}
push	{r4, r5, r6, r7, lr}
.setfp	r7, sp, #12
add	r7, sp, #12
.pad	#60
sub	sp, #60
mov	r5, r1
mov	r4, r0
ldr	r6, [r2]
ldr	r0, [r6, #44]
cmp	r0, #2
bhi	.LBB100_2
movs	r0, #7
b	.LBB100_3
.LBB100_2:
subs	r0, r0, #3
.LBB100_3:
mov	r1, r6
adds	r1, #8
cmp	r0, #0
beq	.LBB100_13
cmp	r0, #5
bne	.LBB100_11
ldr	r0, [r1]
cmp	r0, #0
beq	.LBB100_11
add	r0, sp, #44
ldr r2, trampo_yjj9g_addr
b trampo_yjj9g_after
.p2align 2
trampo_yjj9g_addr: .long .LCPI100_15
trampo_yjj9g_after: ldr r2, [r2]
movs	r3, #4
bl	_ZN4lisp4lisp3val8LispList11expect_cons17h09878936b3701937E
ldr	r0, [sp, #44]
cmp	r0, #0
beq trampo_q6iyv
b .LBB100_27
trampo_q6iyv:
ldr	r6, [sp, #48]
ldr	r0, [sp, #52]
ldr	r1, [r0]
adds	r1, #8
add	r0, sp, #44
ldr r2, trampo_7wdgo_addr
b trampo_7wdgo_after
.p2align 2
trampo_7wdgo_addr: .long .LCPI100_12
trampo_7wdgo_after: ldr r2, [r2]
movs	r3, #19
bl	_ZN4lisp4lisp3val7LispVal11expect_list17h294e3e58bbc02a2aE
ldr	r0, [sp, #44]
cmp	r0, #0
beq trampo_kbab4
b .LBB100_27
trampo_kbab4:
ldr	r0, [sp, #48]
str	r0, [sp, #24]
ldr	r1, [r6]
adds	r1, #8
add	r0, sp, #32
ldr r2, trampo_y2vn9_addr
b trampo_y2vn9_after
.p2align 2
trampo_y2vn9_addr: .long .LCPI100_13
trampo_y2vn9_after: ldr r2, [r2]
movs	r3, #4
bl	_ZN4lisp4lisp3val7LispVal13expect_symbol17h18bca5646ce7453aE
ldr	r0, [sp, #32]
cmp	r0, #0
bne	.LBB100_26
ldr	r2, [sp, #36]
add	r0, sp, #44
mov	r1, r5
ldr	r3, [sp, #24]
bl	_ZN4lisp4lisp4eval5forms44_$LT$impl$u20$lisp..lisp..env..SchemeEnv$GT$17eval_builtin_form17hb30fa4140bb02491E
ldr	r0, [sp, #44]
cmp	r0, #1
bne	.LBB100_26
add	r0, sp, #44
adds	r0, r0, #4
ldm	r0!, {r1, r2, r3}
stm	r4!, {r1, r2, r3}
add	r0, sp, #32
bl	_ZN4core3ptr120drop_in_place$LT$core..result..Result$LT$$RF$lisp..parm..heap..string..String$C$lisp..parm..heap..string..String$GT$$GT$17h0f56d1dcda09fd03E
b	.LBB100_28
.LBB100_11:
movs	r0, #0
str	r0, [r4]
str	r6, [r4, #4]
ldr	r0, [r6]
adds	r0, r0, #1
.LBB100_12:
str	r0, [r6]
b	.LBB100_28
.LBB100_13:
mov	r0, r5
bl	_ZN4lisp4lisp3env9SchemeEnv3get17h4b604ae4e90ffc1cE
cmp	r0, #0
beq	.LBB100_15
movs	r0, #0
stm	r4!, {r0, r1}
b	.LBB100_28
.LBB100_15:
str	r4, [sp, #28]
movs	r5, #0
str	r5, [sp, #52]
str	r5, [sp, #48]
movs	r1, #4
str	r1, [sp, #44]
ldr	r4, .LCPI100_16
mov	r0, r5
.LBB100_16:
cmp	r5, #16
beq	.LBB100_20
ldr	r2, [sp, #48]
cmp	r0, r2
bne	.LBB100_19
add	r0, sp, #44
movs	r1, #1
bl	_ZN4lisp4parm4heap3vec12Vec$LT$T$GT$14grow_amortized17h354e281ba8fc9017E
ldr	r1, [sp, #44]
ldr	r0, [sp, #52]
.LBB100_19:
ldrb	r2, [r4, r5]
lsls	r3, r0, #2
str	r2, [r1, r3]
adds	r0, r0, #1
str	r0, [sp, #52]
adds	r5, r5, #1
b	.LBB100_16
.LBB100_20:
ldr	r5, [r6, #16]
adds	r1, r5, r0
ldr	r6, [r6, #8]
ldr	r2, [sp, #48]
cmp	r1, r2
bls	.LBB100_22
add	r0, sp, #44
mov	r1, r5
bl	_ZN4lisp4parm4heap3vec12Vec$LT$T$GT$14grow_amortized17h354e281ba8fc9017E
ldr	r0, [sp, #52]
.LBB100_22:
lsls	r1, r0, #2
ldr	r2, [sp, #44]
adds	r1, r2, r1
lsls	r2, r5, #2
ldr	r4, [sp, #28]
.LBB100_23:
cmp	r2, #0
beq	.LBB100_25
ldm	r6!, {r3}
stm	r1!, {r3}
subs	r2, r2, #4
adds	r0, r0, #1
b	.LBB100_23
.LBB100_25:
str	r0, [sp, #52]
add	r0, sp, #44
ldm	r0!, {r1, r2, r3}
stm	r4!, {r1, r2, r3}
b	.LBB100_28
.LBB100_26:
add	r0, sp, #32
bl	_ZN4core3ptr120drop_in_place$LT$core..result..Result$LT$$RF$lisp..parm..heap..string..String$C$lisp..parm..heap..string..String$GT$$GT$17h0f56d1dcda09fd03E
add	r0, sp, #44
mov	r1, r5
mov	r2, r6
bl	_ZN4lisp4lisp4eval44_$LT$impl$u20$lisp..lisp..env..SchemeEnv$GT$4eval17h99d6ff1af80af22dE
ldr	r0, [sp, #44]
cmp	r0, #0
beq	.LBB100_29
.LBB100_27:
ldr	r1, [sp, #48]
ldr	r2, [sp, #52]
str	r0, [r4]
str	r1, [r4, #4]
str	r2, [r4, #8]
.LBB100_28:
add	sp, #60
pop	{r4, r5, r6, r7, pc}
.LBB100_29:
ldr	r6, [sp, #48]
mov	r1, r6
adds	r1, #8
add	r0, sp, #44
ldr	r2, .LCPI100_0
movs	r3, #4
bl	_ZN4lisp4lisp3val7LispVal15expect_callable17h22c946e83eddba85E
ldr	r0, [sp, #44]
cmp	r0, #0
beq	.LBB100_32
.LBB100_30:
ldr	r1, [sp, #48]
ldr	r2, [sp, #52]
str	r0, [r4]
str	r1, [r4, #4]
str	r2, [r4, #8]
.LBB100_31:
ldr	r0, [r6]
subs	r0, r0, #1
bne	.LBB100_12
b	.LBB100_28
.LBB100_32:
ldr	r2, [sp, #48]
ldr	r0, [r5]
movs	r3, #48
ldrb	r0, [r0, r3]
movs	r1, #52
str	r2, [sp, #20]
ldrb	r1, [r2, r1]
cmp	r1, #0
beq	.LBB100_46
cmp	r0, #0
bne	.LBB100_34
b	.LBB100_84
.LBB100_34:
str	r6, [sp, #16]
movs	r0, #255
mvns	r6, r0
movs	r0, #0
ldr	r1, .LCPI100_3
.LBB100_35:
cmp	r0, #7
beq	.LBB100_37
ldrb	r2, [r1, r0]
str	r2, [r6]
adds	r0, r0, #1
b	.LBB100_35
.LBB100_37:
str	r4, [sp, #28]
ldr	r4, [sp, #20]
mov	r0, r4
bl	_ZN4lisp4lisp3val8LispProc9type_name17h02b1c430d3eeb9bdE
ldr	r3, [r4]
cmp	r3, #0
bne	.LBB100_39
mov	r4, r3
.LBB100_39:
str	r4, [sp, #12]
ldr	r2, [sp, #20]
ldr	r4, [r2, #36]
cmp	r4, #2
beq	.LBB100_41
ldr	r2, [sp, #12]
.LBB100_41:
cmp	r4, #2
beq	.LBB100_59
cmp	r3, #0
bne	.LBB100_59
movs	r2, #0
ldr	r3, .LCPI100_4
.LBB100_44:
cmp	r2, #2
beq	.LBB100_62
ldrb	r4, [r3, r2]
str	r4, [r6]
adds	r2, r2, #1
b	.LBB100_44
.LBB100_46:
str	r3, [sp, #12]
cmp	r0, #0
str	r6, [sp, #16]
bne	.LBB100_47
b	.LBB100_112
.LBB100_47:
movs	r0, #255
mvns	r6, r0
movs	r0, #0
ldr	r1, .LCPI100_7
.LBB100_48:
cmp	r0, #14
beq	.LBB100_50
ldrb	r2, [r1, r0]
str	r2, [r6]
adds	r0, r0, #1
b	.LBB100_48
.LBB100_50:
str	r4, [sp, #28]
ldr	r4, [sp, #20]
mov	r0, r4
bl	_ZN4lisp4lisp3val8LispProc9type_name17h02b1c430d3eeb9bdE
ldr	r3, [r4]
cmp	r3, #0
bne	.LBB100_52
mov	r4, r3
.LBB100_52:
str	r4, [sp, #8]
ldr	r2, [sp, #20]
ldr	r4, [r2, #36]
cmp	r4, #2
beq	.LBB100_54
ldr	r2, [sp, #8]
.LBB100_54:
cmp	r4, #2
beq	.LBB100_87
cmp	r3, #0
bne	.LBB100_87
movs	r2, #0
ldr	r3, .LCPI100_4
.LBB100_57:
cmp	r2, #2
beq	.LBB100_90
ldrb	r4, [r3, r2]
str	r4, [r6]
adds	r2, r2, #1
b	.LBB100_57
.LBB100_59:
str	r2, [sp, #12]
movs	r3, #0
ldr	r4, .LCPI100_4
.LBB100_60:
cmp	r3, #2
beq	.LBB100_65
ldrb	r2, [r4, r3]
str	r2, [r6]
adds	r3, r3, #1
b	.LBB100_60
.LBB100_62:
ldr	r4, [sp, #28]
.LBB100_63:
cmp	r1, #0
beq	.LBB100_68
ldrb	r2, [r0]
str	r2, [r6]
subs	r1, r1, #1
adds	r0, r0, #1
b	.LBB100_63
.LBB100_65:
ldr	r4, [sp, #28]
.LBB100_66:
cmp	r1, #0
beq	.LBB100_71
ldrb	r2, [r0]
str	r2, [r6]
subs	r1, r1, #1
adds	r0, r0, #1
b	.LBB100_66
.LBB100_68:
movs	r0, #0
ldr	r1, .LCPI100_6
.LBB100_69:
cmp	r0, #1
beq	.LBB100_83
ldrb	r2, [r1, r0]
str	r2, [r6]
adds	r0, r0, #1
b	.LBB100_69
.LBB100_71:
movs	r0, #0
ldr	r1, .LCPI100_5
.LBB100_72:
cmp	r0, #1
beq	.LBB100_74
ldrb	r2, [r1, r0]
str	r2, [r6]
adds	r0, r0, #1
b	.LBB100_72
.LBB100_74:
ldr	r2, [sp, #12]
ldr	r0, [r2]
movs	r1, #1
lsls	r1, r1, #8
ldr	r2, [r2, #8]
lsls	r2, r2, #2
.LBB100_75:
cmp	r2, #0
beq	.LBB100_80
ldm	r0!, {r3}
cmp	r3, r1
blo	.LBB100_78
movs	r3, #63
b	.LBB100_79
.LBB100_78:
uxtb	r3, r3
.LBB100_79:
str	r3, [r6]
subs	r2, r2, #4
b	.LBB100_75
.LBB100_80:
movs	r0, #0
ldr	r1, .LCPI100_6
.LBB100_81:
cmp	r0, #1
beq	.LBB100_83
ldrb	r2, [r1, r0]
str	r2, [r6]
adds	r0, r0, #1
b	.LBB100_81
.LBB100_83:
movs	r0, #32
str	r0, [r6]
ldr	r0, [sp, #24]
bl	_ZN4lisp4lisp3val10write_list17h3c6870a22ca2c2eaE
movs	r0, #10
str	r0, [r6]
ldr	r6, [sp, #16]
.LBB100_84:
add	r0, sp, #44
mov	r1, r5
ldr	r2, [sp, #20]
ldr	r3, [sp, #24]
bl	_ZN4lisp4lisp4eval4call44_$LT$impl$u20$lisp..lisp..env..SchemeEnv$GT$18eval_nonmacro_call17h82f4437c0349fe67E
ldr	r0, [sp, #44]
cmp	r0, #0
beq	.LBB100_85
b	.LBB100_30
.LBB100_85:
mov	r0, r4
ldr	r4, [sp, #48]
str	r4, [sp, #32]
add	r2, sp, #32
mov	r1, r5
bl	_ZN4lisp4lisp4eval44_$LT$impl$u20$lisp..lisp..env..SchemeEnv$GT$4eval17h99d6ff1af80af22dE
ldr	r0, [r4]
subs	r0, r0, #1
bne	.LBB100_86
b	.LBB100_31
.LBB100_86:
str	r0, [r4]
b	.LBB100_31
.LBB100_87:
str	r2, [sp, #8]
movs	r3, #0
ldr	r4, .LCPI100_4
.LBB100_88:
cmp	r3, #2
beq	.LBB100_93
ldrb	r2, [r4, r3]
str	r2, [r6]
adds	r3, r3, #1
b	.LBB100_88
.LBB100_90:
ldr	r4, [sp, #28]
.LBB100_91:
cmp	r1, #0
beq	.LBB100_96
ldrb	r2, [r0]
str	r2, [r6]
subs	r1, r1, #1
adds	r0, r0, #1
b	.LBB100_91
.LBB100_93:
ldr	r4, [sp, #28]
.LBB100_94:
cmp	r1, #0
beq	.LBB100_99
ldrb	r2, [r0]
str	r2, [r6]
subs	r1, r1, #1
adds	r0, r0, #1
b	.LBB100_94
.LBB100_96:
movs	r0, #0
ldr	r1, .LCPI100_6
.LBB100_97:
cmp	r0, #1
beq	.LBB100_111
ldrb	r2, [r1, r0]
str	r2, [r6]
adds	r0, r0, #1
b	.LBB100_97
.LBB100_99:
movs	r0, #0
ldr	r1, .LCPI100_5
.LBB100_100:
cmp	r0, #1
beq	.LBB100_102
ldrb	r2, [r1, r0]
str	r2, [r6]
adds	r0, r0, #1
b	.LBB100_100
.LBB100_102:
ldr	r2, [sp, #8]
ldr	r0, [r2]
movs	r1, #1
lsls	r1, r1, #8
ldr	r2, [r2, #8]
lsls	r2, r2, #2
.LBB100_103:
cmp	r2, #0
beq	.LBB100_108
ldm	r0!, {r3}
cmp	r3, r1
blo	.LBB100_106
movs	r3, #63
b	.LBB100_107
.LBB100_106:
uxtb	r3, r3
.LBB100_107:
str	r3, [r6]
subs	r2, r2, #4
b	.LBB100_103
.LBB100_108:
movs	r0, #0
ldr	r1, .LCPI100_6
.LBB100_109:
cmp	r0, #1
beq	.LBB100_111
ldrb	r2, [r1, r0]
str	r2, [r6]
adds	r0, r0, #1
b	.LBB100_109
.LBB100_111:
movs	r0, #32
str	r0, [r6]
ldr	r0, [sp, #24]
bl	_ZN4lisp4lisp3val10write_list17h3c6870a22ca2c2eaE
movs	r0, #10
str	r0, [r6]
ldr	r6, [sp, #16]
.LBB100_112:
add	r0, sp, #44
mov	r1, r5
ldr	r2, [sp, #24]
bl	_ZN4lisp4lisp4eval5forms44_$LT$impl$u20$lisp..lisp..env..SchemeEnv$GT$9eval_list17h1df638e6568ef3e8E
ldr	r0, [sp, #44]
cmp	r0, #0
beq	.LBB100_113
b	.LBB100_30
.LBB100_113:
ldr	r1, [sp, #48]
str	r1, [sp, #8]
adds	r1, #8
add	r0, sp, #44
ldr	r2, .LCPI100_8
movs	r6, #0
mov	r3, r6
bl	_ZN4lisp4lisp3val7LispVal11expect_list17h294e3e58bbc02a2aE
ldr	r3, [sp, #48]
ldr	r0, [r5]
ldr	r1, [sp, #12]
ldrb	r0, [r0, r1]
cmp	r0, #0
beq	.LBB100_156
movs	r0, #255
mvns	r0, r0
str	r0, [sp, #24]
ldr	r0, .LCPI100_9
ldr	r2, [sp, #24]
.LBB100_115:
cmp	r6, #10
beq	.LBB100_117
ldrb	r1, [r0, r6]
str	r1, [r2]
adds	r6, r6, #1
b	.LBB100_115
.LBB100_117:
str	r3, [sp, #12]
str	r4, [sp, #28]
ldr	r6, [sp, #20]
mov	r0, r6
bl	_ZN4lisp4lisp3val8LispProc9type_name17h02b1c430d3eeb9bdE
ldr	r3, [r6]
cmp	r3, #0
bne	.LBB100_119
mov	r6, r3
.LBB100_119:
ldr	r2, [sp, #20]
ldr	r4, [r2, #36]
cmp	r4, #2
beq	.LBB100_121
mov	r2, r6
.LBB100_121:
cmp	r4, #2
beq	.LBB100_126
cmp	r3, #0
bne	.LBB100_126
movs	r2, #0
ldr	r3, .LCPI100_4
ldr	r6, [sp, #24]
.LBB100_124:
cmp	r2, #2
beq	.LBB100_129
ldrb	r4, [r3, r2]
str	r4, [r6]
adds	r2, r2, #1
b	.LBB100_124
.LBB100_126:
str	r2, [sp, #4]
movs	r3, #0
ldr	r4, .LCPI100_4
ldr	r2, [sp, #24]
.LBB100_127:
cmp	r3, #2
beq	.LBB100_133
ldrb	r6, [r4, r3]
str	r6, [r2]
adds	r3, r3, #1
b	.LBB100_127
.LBB100_129:
ldr	r4, [sp, #28]
ldr	r3, [sp, #12]
.LBB100_130:
cmp	r1, #0
beq	.LBB100_140
ldrb	r2, [r0]
str	r2, [r6]
subs	r1, r1, #1
adds	r0, r0, #1
b	.LBB100_130
.p2align	2
.LCPI100_15:
.long	.L__unnamed_138
.p2align	1
.LBB100_133:
ldr	r4, [sp, #28]
ldr	r6, [sp, #24]
ldr	r2, [sp, #4]
.LBB100_134:
cmp	r1, #0
beq	.LBB100_143
ldrb	r3, [r0]
str	r3, [r6]
subs	r1, r1, #1
adds	r0, r0, #1
b	.LBB100_134
.p2align	2
.LCPI100_12:
.long	.L__unnamed_139
.p2align	2
.LCPI100_13:
.long	.L__unnamed_140
.p2align	2
.LCPI100_16:
.long	.L__unnamed_141
.p2align	1
.LBB100_140:
movs	r0, #0
ldr	r1, .LCPI100_6
.LBB100_141:
cmp	r0, #1
beq	.LBB100_155
ldrb	r2, [r1, r0]
str	r2, [r6]
adds	r0, r0, #1
b	.LBB100_141
.LBB100_143:
movs	r0, #0
ldr	r1, .LCPI100_5
.LBB100_144:
cmp	r0, #1
beq	.LBB100_146
ldrb	r3, [r1, r0]
str	r3, [r6]
adds	r0, r0, #1
b	.LBB100_144
.LBB100_146:
ldr	r0, [r2]
movs	r1, #1
lsls	r1, r1, #8
ldr	r2, [r2, #8]
lsls	r2, r2, #2
.LBB100_147:
cmp	r2, #0
beq	.LBB100_152
ldm	r0!, {r3}
cmp	r3, r1
blo	.LBB100_150
movs	r3, #63
b	.LBB100_151
.LBB100_150:
uxtb	r3, r3
.LBB100_151:
str	r3, [r6]
subs	r2, r2, #4
b	.LBB100_147
.LBB100_152:
movs	r0, #0
ldr	r1, .LCPI100_6
ldr	r3, [sp, #12]
.LBB100_153:
cmp	r0, #1
beq	.LBB100_155
ldrb	r2, [r1, r0]
str	r2, [r6]
adds	r0, r0, #1
b	.LBB100_153
.LBB100_155:
movs	r0, #32
str	r0, [r6]
mov	r0, r3
bl	_ZN4lisp4lisp3val10write_list17h3c6870a22ca2c2eaE
ldr	r3, [sp, #12]
movs	r0, #10
str	r0, [r6]
.LBB100_156:
mov	r0, r4
mov	r1, r5
ldr	r2, [sp, #20]
bl	_ZN4lisp4lisp4eval4call44_$LT$impl$u20$lisp..lisp..env..SchemeEnv$GT$18eval_nonmacro_call17h82f4437c0349fe67E
ldr	r1, [sp, #8]
ldr	r0, [r1]
subs	r0, r0, #1
ldr	r6, [sp, #16]
bne	.LBB100_157
b	.LBB100_31
.LBB100_157:
str	r0, [r1]
b	.LBB100_31
.p2align	2
.LCPI100_0:
.long	.L__unnamed_138
.LCPI100_3:
.long	.L__unnamed_142
.LCPI100_4:
.long	.L__unnamed_143
.LCPI100_5:
.long	.L__unnamed_144
.LCPI100_6:
.long	.L__unnamed_8
.LCPI100_7:
.long	.L__unnamed_145
.LCPI100_8:
.long	.L__unnamed_62
.LCPI100_9:
.long	.L__unnamed_146
.Lfunc_end100:
.size	_ZN4lisp4lisp4eval44_$LT$impl$u20$lisp..lisp..env..SchemeEnv$GT$4eval17h99d6ff1af80af22dE, .Lfunc_end100-_ZN4lisp4lisp4eval44_$LT$impl$u20$lisp..lisp..env..SchemeEnv$GT$4eval17h99d6ff1af80af22dE
.cantunwind
.fnend

.section	.text._ZN4lisp4lisp5parse12SchemeParser6accept17h228e223cf68bafaeE,"ax",%progbits
.p2align	1
.type	_ZN4lisp4lisp5parse12SchemeParser6accept17h228e223cf68bafaeE,%function
.code	16
.thumb_func
_ZN4lisp4lisp5parse12SchemeParser6accept17h228e223cf68bafaeE:
.fnstart
.save	{r4, r5, r7, lr}
push	{r4, r5, r7, lr}
.setfp	r7, sp, #8
add	r7, sp, #8
mov	r5, r1
mov	r4, r0
adds	r4, #8
mov	r0, r4
bl	_ZN4core4iter8adapters8peekable17Peekable$LT$I$GT$4peek17h7b50f0e7a63906bdE
mov	r1, r0
movs	r0, #0
cmp	r1, #0
beq	.LBB101_3
ldr	r1, [r1, #4]
cmp	r1, r5
bne	.LBB101_3
mov	r0, r4
bl	_ZN108_$LT$core..iter..adapters..peekable..Peekable$LT$I$GT$$u20$as$u20$core..iter..traits..iterator..Iterator$GT$4next17h0170e9c6952d9f9fE
movs	r0, #1
.LBB101_3:
pop	{r4, r5, r7, pc}
.Lfunc_end101:
.size	_ZN4lisp4lisp5parse12SchemeParser6accept17h228e223cf68bafaeE, .Lfunc_end101-_ZN4lisp4lisp5parse12SchemeParser6accept17h228e223cf68bafaeE
.cantunwind
.fnend

.section	.text._ZN4lisp4lisp5parse12SchemeParser6expect17h7610d2266d90e2b7E,"ax",%progbits
.p2align	1
.type	_ZN4lisp4lisp5parse12SchemeParser6expect17h7610d2266d90e2b7E,%function
.code	16
.thumb_func
_ZN4lisp4lisp5parse12SchemeParser6expect17h7610d2266d90e2b7E:
.fnstart
.save	{r4, r5, r6, r7, lr}
.pad	#4
push	{r3, r4, r5, r6, r7, lr}
.setfp	r7, sp, #16
add	r7, sp, #16
mov	r5, r2
mov	r6, r1
mov	r4, r0
mov	r0, r1
mov	r1, r2
bl	_ZN4lisp4lisp5parse12SchemeParser6accept17h228e223cf68bafaeE
cmp	r0, #0
beq	.LBB102_2
movs	r0, #17
lsls	r0, r0, #16
adds	r0, r0, #7
str	r0, [r4]
pop	{r3, r4, r5, r6, r7, pc}
.LBB102_2:
adds	r6, #8
mov	r0, r6
bl	_ZN4core4iter8adapters8peekable17Peekable$LT$I$GT$4peek17h7b50f0e7a63906bdE
cmp	r0, #0
beq	.LBB102_4
ldr	r0, [r0, #4]
b	.LBB102_5
.LBB102_4:
movs	r0, #17
lsls	r0, r0, #16
.LBB102_5:
str	r5, [r4]
str	r0, [r4, #4]
pop	{r3, r4, r5, r6, r7, pc}
.Lfunc_end102:
.size	_ZN4lisp4lisp5parse12SchemeParser6expect17h7610d2266d90e2b7E, .Lfunc_end102-_ZN4lisp4lisp5parse12SchemeParser6expect17h7610d2266d90e2b7E
.cantunwind
.fnend

.section	.text._ZN4lisp4lisp5parse12SchemeParser10expect_str17hd75a0f7bd7da1a3dE,"ax",%progbits
.p2align	2
.type	_ZN4lisp4lisp5parse12SchemeParser10expect_str17hd75a0f7bd7da1a3dE,%function
.code	16
.thumb_func
_ZN4lisp4lisp5parse12SchemeParser10expect_str17hd75a0f7bd7da1a3dE:
.fnstart
.save	{r4, r5, r6, r7, lr}
push	{r4, r5, r6, r7, lr}
.setfp	r7, sp, #12
add	r7, sp, #12
.pad	#20
sub	sp, #20
mov	r5, r1
mov	r4, r0
str	r2, [sp]
adds	r0, r2, r3
str	r0, [sp, #4]
ldr	r6, .LCPI103_0
.LBB103_1:
mov	r0, sp
bl	_ZN81_$LT$core..str..iter..Chars$u20$as$u20$core..iter..traits..iterator..Iterator$GT$4next17h89cbe918d5553988E
mov	r2, r0
subs	r0, r6, #7
cmp	r2, r0
beq	.LBB103_5
add	r0, sp, #8
mov	r1, r5
bl	_ZN4lisp4lisp5parse12SchemeParser6expect17h7610d2266d90e2b7E
ldr	r0, [sp, #8]
cmp	r0, r6
beq	.LBB103_1
ldr	r0, [sp, #8]
cmp	r0, r6
beq	.LBB103_1
ldr	r1, [sp, #12]
stm	r4!, {r0, r1}
b	.LBB103_6
.LBB103_5:
str	r6, [r4]
.LBB103_6:
add	sp, #20
pop	{r4, r5, r6, r7, pc}
.p2align	2
.LCPI103_0:
.long	1114119
.Lfunc_end103:
.size	_ZN4lisp4lisp5parse12SchemeParser10expect_str17hd75a0f7bd7da1a3dE, .Lfunc_end103-_ZN4lisp4lisp5parse12SchemeParser10expect_str17hd75a0f7bd7da1a3dE
.cantunwind
.fnend

.section	.text._ZN4lisp4lisp5parse12SchemeParser11current_pos17ha0c6a05ed2754bc0E,"ax",%progbits
.p2align	1
.type	_ZN4lisp4lisp5parse12SchemeParser11current_pos17ha0c6a05ed2754bc0E,%function
.code	16
.thumb_func
_ZN4lisp4lisp5parse12SchemeParser11current_pos17ha0c6a05ed2754bc0E:
.fnstart
.save	{r4, r6, r7, lr}
push	{r4, r6, r7, lr}
.setfp	r7, sp, #8
add	r7, sp, #8
mov	r4, r0
adds	r0, #8
bl	_ZN4core4iter8adapters8peekable17Peekable$LT$I$GT$4peek17h7b50f0e7a63906bdE
mov	r1, r0
cmp	r0, #0
beq	.LBB104_2
ldr	r0, [r1]
b	.LBB104_3
.LBB104_2:
.LBB104_3:
cmp	r1, #0
bne	.LBB104_5
ldr	r0, [r4, #4]
.LBB104_5:
pop	{r4, r6, r7, pc}
.Lfunc_end104:
.size	_ZN4lisp4lisp5parse12SchemeParser11current_pos17ha0c6a05ed2754bc0E, .Lfunc_end104-_ZN4lisp4lisp5parse12SchemeParser11current_pos17ha0c6a05ed2754bc0E
.cantunwind
.fnend

.section	.text._ZN4lisp4lisp5parse12SchemeParser12read_special17hbeb3a7eb8686b6dfE,"ax",%progbits
.p2align	1
.type	_ZN4lisp4lisp5parse12SchemeParser12read_special17hbeb3a7eb8686b6dfE,%function
.code	16
.thumb_func
_ZN4lisp4lisp5parse12SchemeParser12read_special17hbeb3a7eb8686b6dfE:
.fnstart
.save	{r4, r5, r6, r7, lr}
push	{r4, r5, r6, r7, lr}
.setfp	r7, sp, #12
add	r7, sp, #12
.pad	#156
sub	sp, #156
str	r1, [sp, #36]
str	r0, [sp, #32]
add	r6, sp, #96
mov	r0, r6
mov	r1, r2
mov	r2, r3
bl	_ZN87_$LT$lisp..parm..heap..string..String$u20$as$u20$core..convert..From$LT$$RF$str$GT$$GT$4from17h25a10eb48256cf6dE
movs	r1, #1
lsls	r5, r1, #16
ldr	r4, [r5]
movs	r0, #64
str	r0, [sp, #28]
str	r0, [r4]
mov	r0, r4
adds	r0, #68
str	r0, [r5]
movs	r0, #0
str	r0, [sp, #40]
str	r0, [r4, #8]
str	r1, [sp, #44]
str	r1, [r4, #4]
mov	r0, r4
adds	r0, #12
movs	r2, #36
mov	r1, r6
bl	__aeabi_memcpy
movs	r0, #3
str	r0, [r4, #48]
add	r0, sp, #96
ldr	r1, [sp, #36]
bl	_ZN4lisp4lisp5parse12SchemeParser4read17hb5349f5ce1d50833E
adds	r3, r4, #4
ldr	r0, [sp, #100]
str	r0, [sp, #36]
ldr	r4, [sp, #96]
ldr	r6, [sp, #132]
cmp	r6, #13
bne	.LBB105_3
movs	r0, #13
ldr	r1, [sp, #32]
str	r0, [r1, #36]
str	r4, [r1]
ldr	r0, [sp, #36]
str	r0, [r1, #4]
ldr	r0, [r3]
subs	r0, r0, #1
beq	.LBB105_4
str	r0, [r3]
b	.LBB105_4
.LBB105_3:
str	r4, [sp, #4]
add	r4, sp, #96
mov	r1, r4
adds	r1, #8
add	r0, sp, #64
str	r0, [sp, #12]
movs	r2, #28
str	r2, [sp, #8]
str	r6, [sp, #20]
str	r3, [sp, #24]
bl	__aeabi_memcpy
adds	r4, #40
add	r0, sp, #48
str	r0, [sp, #16]
ldm	r4!, {r1, r2, r3, r6}
stm	r0!, {r1, r2, r3, r6}
ldr	r6, [r5]
ldr	r0, [sp, #28]
str	r0, [r6]
mov	r0, r6
adds	r0, #68
str	r0, [r5]
ldr	r0, [sp, #36]
str	r0, [r6, #16]
ldr	r0, [sp, #4]
str	r0, [r6, #12]
ldr	r0, [sp, #40]
str	r0, [r6, #8]
ldr	r0, [sp, #44]
str	r0, [r6, #4]
mov	r0, r6
adds	r0, #20
ldr	r1, [sp, #12]
ldr	r2, [sp, #8]
bl	__aeabi_memcpy
ldr	r0, [sp, #20]
str	r0, [r6, #48]
mov	r0, r6
adds	r0, #52
str	r5, [sp, #36]
ldr	r5, [sp, #16]
ldm	r5!, {r1, r2, r3, r4}
stm	r0!, {r1, r2, r3, r4}
ldr	r4, [sp, #36]
ldr	r0, [r4]
ldr	r3, [sp, #28]
str	r3, [r0]
mov	r1, r0
adds	r1, #68
str	r1, [r4]
movs	r2, #8
str	r2, [r0, #48]
ldr	r1, [sp, #40]
str	r1, [r0, #12]
str	r1, [r0, #8]
ldr	r1, [sp, #44]
str	r1, [r0, #4]
ldr	r1, [r4]
str	r3, [r1]
mov	r3, r1
adds	r3, #68
str	r3, [r4]
ldr	r4, [sp, #32]
str	r2, [r4, #36]
adds	r3, r1, #4
str	r3, [sp, #36]
ldr	r3, [sp, #44]
str	r3, [r4]
ldr	r5, [sp, #24]
str	r5, [r4, #4]
ldr	r5, [sp, #36]
str	r5, [r4, #8]
str	r2, [r1, #48]
adds	r0, r0, #4
str	r0, [r1, #20]
adds	r0, r6, #4
str	r0, [r1, #16]
str	r3, [r1, #12]
ldr	r2, [sp, #40]
str	r2, [r1, #8]
str	r3, [r1, #4]
.LBB105_4:
add	sp, #156
pop	{r4, r5, r6, r7, pc}
.Lfunc_end105:
.size	_ZN4lisp4lisp5parse12SchemeParser12read_special17hbeb3a7eb8686b6dfE, .Lfunc_end105-_ZN4lisp4lisp5parse12SchemeParser12read_special17hbeb3a7eb8686b6dfE
.cantunwind
.fnend

.section	.text._ZN4lisp4lisp5parse12SchemeParser9read_char17h39cdb194dbbc3795E,"ax",%progbits
.p2align	2
.type	_ZN4lisp4lisp5parse12SchemeParser9read_char17h39cdb194dbbc3795E,%function
.code	16
.thumb_func
_ZN4lisp4lisp5parse12SchemeParser9read_char17h39cdb194dbbc3795E:
.fnstart
.save	{r4, r5, r6, r7, lr}
push	{r4, r5, r6, r7, lr}
.setfp	r7, sp, #12
add	r7, sp, #12
.pad	#28
sub	sp, #28
mov	r5, r1
mov	r6, r0
str	r1, [sp, #12]
adds	r5, #8
mov	r0, r5
bl	_ZN108_$LT$core..iter..adapters..peekable..Peekable$LT$I$GT$$u20$as$u20$core..iter..traits..iterator..Iterator$GT$4next17h0170e9c6952d9f9fE
mov	r4, r0
movs	r0, #17
lsls	r0, r0, #16
cmp	r4, r0
bne	.LBB106_2
movs	r0, #0
ldr	r1, .LCPI106_9
str	r1, [r6]
str	r0, [r6, #4]
movs	r0, #13
str	r0, [r6, #36]
b	.LBB106_75
.LBB106_2:
str	r0, [sp, #4]
str	r6, [sp, #8]
mov	r0, r5
bl	_ZN4core4iter8adapters8peekable17Peekable$LT$I$GT$4peek17h7b50f0e7a63906bdE
cmp	r0, #0
beq	.LBB106_10
ldr	r1, [r0, #4]
mov	r2, r1
subs	r2, #65
cmp	r2, #26
blo	.LBB106_5
subs	r1, #97
cmp	r1, #25
bhi	.LBB106_10
.LBB106_5:
mov	r0, r4
subs	r0, #112
cmp	r0, #6
bls	.LBB106_6
b	.LBB106_32
.LBB106_6:
.p2align	2
add	r0, pc
ldrb	r0, [r0, #4]
lsls	r0, r0, #1
.LCPI106_15:
add	pc, r0
.p2align	2
.LJTI106_0:
.byte	(.LBB106_8-(.LCPI106_15+4))/2
.byte	(.LBB106_36-(.LCPI106_15+4))/2
.byte	(.LBB106_36-(.LCPI106_15+4))/2
.byte	(.LBB106_44-(.LCPI106_15+4))/2
.byte	(.LBB106_46-(.LCPI106_15+4))/2
.byte	(.LBB106_21-(.LCPI106_15+4))/2
.byte	(.LBB106_48-(.LCPI106_15+4))/2
.p2align	1
.LBB106_8:
add	r0, sp, #16
ldr	r2, .LCPI106_1
movs	r3, #3
ldr	r1, [sp, #12]
bl	_ZN4lisp4lisp5parse12SchemeParser10expect_str17hd75a0f7bd7da1a3dE
ldr	r0, [sp, #4]
adds	r1, r0, #7
ldr	r0, [sp, #16]
cmp	r0, r1
beq	.LBB106_9
b	.LBB106_50
.LBB106_9:
ldr	r3, [sp, #8]
b	.LBB106_51
.LBB106_10:
movs	r1, #32
mvns	r1, r1
mov	r2, r4
subs	r2, #85
tst	r2, r1
beq	.LBB106_21
ldr	r1, .LCPI106_10
mov	r2, r4
ands	r2, r1
cmp	r2, #48
bne	.LBB106_35
cmp	r0, #0
beq	.LBB106_35
ldr	r0, [r0, #4]
ands	r0, r1
cmp	r0, #48
bne	.LBB106_35
movs	r4, #0
.LBB106_15:
mov	r0, r5
bl	_ZN4core4iter8adapters8peekable17Peekable$LT$I$GT$4peek17h7b50f0e7a63906bdE
cmp	r0, #0
beq	.LBB106_27
ldr	r6, [r0, #4]
subs	r6, #48
cmp	r6, #10
bhs	.LBB106_27
mov	r0, r5
bl	_ZN108_$LT$core..iter..adapters..peekable..Peekable$LT$I$GT$$u20$as$u20$core..iter..traits..iterator..Iterator$GT$4next17h0170e9c6952d9f9fE
cmp	r6, #8
blo	.LBB106_19
movs	r0, #0
b	.LBB106_20
.LBB106_19:
movs	r0, #1
.LBB106_20:
mov	r1, r6
ldr	r2, .LCPI106_11
bl	_ZN4core6option15Option$LT$T$GT$6unwrap17h1987e68de7664eb3E
lsls	r0, r4, #3
adds	r4, r6, r0
b	.LBB106_15
.LBB106_21:
movs	r4, #0
.LBB106_22:
mov	r0, r5
bl	_ZN4core4iter8adapters8peekable17Peekable$LT$I$GT$4peek17h7b50f0e7a63906bdE
cmp	r0, #0
beq	.LBB106_27
ldr	r6, [r0, #4]
mov	r0, r6
subs	r0, #48
cmp	r0, #10
blo	.LBB106_26
mov	r0, r6
subs	r0, #65
cmp	r0, #6
blo	.LBB106_26
mov	r0, r6
subs	r0, #97
cmp	r0, #6
bhs	.LBB106_27
.LBB106_26:
mov	r0, r5
bl	_ZN108_$LT$core..iter..adapters..peekable..Peekable$LT$I$GT$$u20$as$u20$core..iter..traits..iterator..Iterator$GT$4next17h0170e9c6952d9f9fE
movs	r1, #16
mov	r0, r6
bl	_ZN4core4char7methods22_$LT$impl$u20$char$GT$8to_digit17h0a32d5e36bbf30f3E
mov	r6, r1
ldr	r2, .LCPI106_14
bl	_ZN4core6option15Option$LT$T$GT$6unwrap17h1987e68de7664eb3E
lsls	r0, r4, #4
adds	r4, r6, r0
b	.LBB106_22
.LBB106_27:
ldr	r0, [sp, #4]
subs	r1, r4, r0
rsbs	r0, r1, #0
adcs	r0, r1
movs	r1, #27
lsls	r1, r1, #11
eors	r1, r4
ldr	r2, .LCPI106_12
adds	r1, r1, r2
ldr	r2, .LCPI106_13
cmp	r1, r2
blo	.LBB106_29
movs	r1, #0
b	.LBB106_30
.LBB106_29:
movs	r1, #1
.LBB106_30:
orrs	r1, r0
beq	.LBB106_35
.LBB106_31:
movs	r0, #0
ldr	r1, .LCPI106_9
ldr	r2, [sp, #8]
str	r1, [r2]
str	r0, [r2, #4]
movs	r0, #13
str	r0, [r2, #36]
b	.LBB106_75
.LBB106_32:
cmp	r4, #98
bne	.LBB106_36
add	r0, sp, #16
ldr	r2, .LCPI106_4
movs	r4, #8
ldr	r1, [sp, #12]
mov	r3, r4
bl	_ZN4lisp4lisp5parse12SchemeParser10expect_str17hd75a0f7bd7da1a3dE
ldr	r0, [sp, #4]
adds	r1, r0, #7
ldr	r0, [sp, #16]
cmp	r0, r1
beq	.LBB106_35
ldr	r0, [sp, #16]
cmp	r0, r1
beq	.LBB106_35
b	.LBB106_66
.LBB106_35:
movs	r0, #7
ldr	r1, [sp, #8]
str	r0, [r1, #36]
str	r4, [r1]
b	.LBB106_75
.LBB106_36:
mov	r0, r5
bl	_ZN108_$LT$core..iter..adapters..peekable..Peekable$LT$I$GT$$u20$as$u20$core..iter..traits..iterator..Iterator$GT$4next17h0170e9c6952d9f9fE
ldr	r1, [sp, #4]
cmp	r0, r1
beq	.LBB106_31
cmp	r4, #110
beq	.LBB106_59
cmp	r4, #114
ldr	r4, [sp, #8]
bne	.LBB106_64
cmp	r0, #117
